ARM GAS  C:\Users\Lenovo\AppData\Local\Temp\ccm6tDFF.s 			page 1


   1              		.cpu cortex-m0
   2              		.arch armv6s-m
   3              		.fpu softvfp
   4              		.eabi_attribute 20, 1
   5              		.eabi_attribute 21, 1
   6              		.eabi_attribute 23, 3
   7              		.eabi_attribute 24, 1
   8              		.eabi_attribute 25, 1
   9              		.eabi_attribute 26, 1
  10              		.eabi_attribute 30, 1
  11              		.eabi_attribute 34, 0
  12              		.eabi_attribute 18, 4
  13              		.file	"main.c"
  14              		.text
  15              	.Ltext0:
  16              		.cfi_sections	.debug_frame
  17              		.file 1 "Core/Src/main.c"
  18              		.section	.text.MX_GPIO_Init,"ax",%progbits
  19              		.align	1
  20              		.syntax unified
  21              		.code	16
  22              		.thumb_func
  24              	MX_GPIO_Init:
  25              	.LFB42:
   1:Core/Src/main.c **** /* USER CODE BEGIN Header */
   2:Core/Src/main.c **** /**
   3:Core/Src/main.c ****   ******************************************************************************
   4:Core/Src/main.c ****   * @file           : main.c
   5:Core/Src/main.c ****   * @brief          : Main program body
   6:Core/Src/main.c ****   ******************************************************************************
   7:Core/Src/main.c ****   * @attention
   8:Core/Src/main.c ****   *
   9:Core/Src/main.c ****   * Copyright (c) 2025 STMicroelectronics.
  10:Core/Src/main.c ****   * All rights reserved.
  11:Core/Src/main.c ****   *
  12:Core/Src/main.c ****   * This software is licensed under terms that can be found in the LICENSE file
  13:Core/Src/main.c ****   * in the root directory of this software component.
  14:Core/Src/main.c ****   * If no LICENSE file comes with this software, it is provided AS-IS.
  15:Core/Src/main.c ****   *
  16:Core/Src/main.c ****   ******************************************************************************
  17:Core/Src/main.c ****   */
  18:Core/Src/main.c **** /* USER CODE END Header */
  19:Core/Src/main.c **** /* Includes ------------------------------------------------------------------*/
  20:Core/Src/main.c **** #include "main.h"
  21:Core/Src/main.c **** 
  22:Core/Src/main.c **** /* Private includes ----------------------------------------------------------*/
  23:Core/Src/main.c **** /* USER CODE BEGIN Includes */
  24:Core/Src/main.c **** #include <stdint.h>
  25:Core/Src/main.c **** #include "stm32f0xx.h"
  26:Core/Src/main.c **** /* USER CODE END Includes */
  27:Core/Src/main.c **** 
  28:Core/Src/main.c **** /* Private typedef -----------------------------------------------------------*/
  29:Core/Src/main.c **** /* USER CODE BEGIN PTD */
  30:Core/Src/main.c **** #define MAX_ITER 100
  31:Core/Src/main.c **** /* USER CODE END PTD */
  32:Core/Src/main.c **** #define SCALE_BITS 16
  33:Core/Src/main.c **** #define SCALE (1 << SCALE_BITS)  // 65536
ARM GAS  C:\Users\Lenovo\AppData\Local\Temp\ccm6tDFF.s 			page 2


  34:Core/Src/main.c **** /* Private define ------------------------------------------------------------*/
  35:Core/Src/main.c **** /* USER CODE BEGIN PD */
  36:Core/Src/main.c **** 
  37:Core/Src/main.c **** /* USER CODE END PD */
  38:Core/Src/main.c **** 
  39:Core/Src/main.c **** /* Private macro -------------------------------------------------------------*/
  40:Core/Src/main.c **** /* USER CODE BEGIN PM */
  41:Core/Src/main.c **** 
  42:Core/Src/main.c **** /* USER CODE END PM */
  43:Core/Src/main.c **** 
  44:Core/Src/main.c **** /* Private variables ---------------------------------------------------------*/
  45:Core/Src/main.c **** 
  46:Core/Src/main.c **** /* USER CODE BEGIN PV */
  47:Core/Src/main.c **** //TODO: Define and initialise the global varibales required
  48:Core/Src/main.c **** /*
  49:Core/Src/main.c ****   start_time
  50:Core/Src/main.c ****   end_time
  51:Core/Src/main.c ****   execution_time 
  52:Core/Src/main.c ****   checksum: should be uint64_t
  53:Core/Src/main.c ****   initial width and height maybe or you might opt for an array??
  54:Core/Src/main.c **** */
  55:Core/Src/main.c **** uint16_t test_image_sizes[] = { 128, 160, 192, 224, 256 };
  56:Core/Src/main.c **** //variables profiling for execution time
  57:Core/Src/main.c **** uint32_t start_time = 0;
  58:Core/Src/main.c **** uint32_t end_time   = 0;
  59:Core/Src/main.c **** 
  60:Core/Src/main.c **** uint32_t mandelbrot_checksum = 0;//to hole checksum returned
  61:Core/Src/main.c **** /* USER CODE END PV */
  62:Core/Src/main.c **** 
  63:Core/Src/main.c **** /* Private function prototypes -----------------------------------------------*/
  64:Core/Src/main.c **** void SystemClock_Config(void);
  65:Core/Src/main.c **** static void MX_GPIO_Init(void);
  66:Core/Src/main.c **** /* USER CODE BEGIN PFP */
  67:Core/Src/main.c **** uint64_t calculate_mandelbrot_fixed_point_arithmetic(int width, int height, int max_iterations);
  68:Core/Src/main.c **** uint64_t calculate_mandelbrot_double(int width, int height, int max_iterations);
  69:Core/Src/main.c **** 
  70:Core/Src/main.c **** 
  71:Core/Src/main.c **** /* USER CODE END PFP */
  72:Core/Src/main.c **** 
  73:Core/Src/main.c **** /* Private user code ---------------------------------------------------------*/
  74:Core/Src/main.c **** /* USER CODE BEGIN 0 */
  75:Core/Src/main.c **** 
  76:Core/Src/main.c **** /* USER CODE END 0 */
  77:Core/Src/main.c **** 
  78:Core/Src/main.c **** /**
  79:Core/Src/main.c ****   * @brief  The application entry point.
  80:Core/Src/main.c ****   * @retval int
  81:Core/Src/main.c ****   */
  82:Core/Src/main.c **** int main(void)
  83:Core/Src/main.c **** {
  84:Core/Src/main.c ****   /* USER CODE BEGIN 1 */
  85:Core/Src/main.c **** 
  86:Core/Src/main.c ****   /* USER CODE END 1 */
  87:Core/Src/main.c **** 
  88:Core/Src/main.c ****   /* MCU Configuration--------------------------------------------------------*/
  89:Core/Src/main.c **** 
  90:Core/Src/main.c ****   /* Reset of all peripherals, Initializes the Flash interface and the Systick. */
ARM GAS  C:\Users\Lenovo\AppData\Local\Temp\ccm6tDFF.s 			page 3


  91:Core/Src/main.c ****   HAL_Init();
  92:Core/Src/main.c **** 
  93:Core/Src/main.c ****   /* USER CODE BEGIN Init */
  94:Core/Src/main.c **** 
  95:Core/Src/main.c ****   /* USER CODE END Init */
  96:Core/Src/main.c **** 
  97:Core/Src/main.c ****   /* Configure the system clock */
  98:Core/Src/main.c ****   SystemClock_Config();
  99:Core/Src/main.c **** 
 100:Core/Src/main.c ****   /* USER CODE BEGIN SysInit */
 101:Core/Src/main.c **** 
 102:Core/Src/main.c ****   /* USER CODE END SysInit */
 103:Core/Src/main.c **** 
 104:Core/Src/main.c ****   /* Initialize all configured peripherals */
 105:Core/Src/main.c ****   MX_GPIO_Init();
 106:Core/Src/main.c ****   /* USER CODE BEGIN 2 */
 107:Core/Src/main.c ****   //TODO: Turn on LED 0 to signify the start of the operation
 108:Core/Src/main.c ****   LL_GPIO_ResetOutputPin(GPIOB, 0b11111111);  // Clear all pins on GPIOB
 109:Core/Src/main.c ****   HAL_GPIO_WritePin(GPIOB, GPIO_PIN_0, GPIO_PIN_SET);  // Set just pin 0 high
 110:Core/Src/main.c **** 
 111:Core/Src/main.c ****   //TODO: Record the start time
 112:Core/Src/main.c ****   start_time = HAL_GetTick(); // time in ms before
 113:Core/Src/main.c ****   
 114:Core/Src/main.c ****   //TODO: Call the Mandelbrot Function and store the output in the checksum variable defined initia
 115:Core/Src/main.c ****   for(int i =0; i<5; i++){
 116:Core/Src/main.c ****   mandelbrot_checksum = calculate_mandelbrot_fixed_point_arithmetic(test_image_sizes[i], test_image
 117:Core/Src/main.c ****   }
 118:Core/Src/main.c ****   //TODO: Record the end time
 119:Core/Src/main.c ****   
 120:Core/Src/main.c ****    end_time = HAL_GetTick(); // time in ms before
 121:Core/Src/main.c ****   //TODO: Calculate the execution time
 122:Core/Src/main.c ****   
 123:Core/Src/main.c ****    uint32_t execution_time = end_time - start_time;
 124:Core/Src/main.c ****   //TODO: Turn on LED 1 to signify the end of the operation
 125:Core/Src/main.c ****    LL_GPIO_ResetOutputPin(GPIOB, 0b11111111);  // Clear all pins on GPIOB
 126:Core/Src/main.c ****    HAL_GPIO_WritePin(GPIOB, GPIO_PIN_1, GPIO_PIN_SET);  // Set just pin 0 high
 127:Core/Src/main.c **** 
 128:Core/Src/main.c ****   //TODO: Hold the LEDs on for a 1s delay
 129:Core/Src/main.c ****    HAL_Delay(1000);
 130:Core/Src/main.c **** 
 131:Core/Src/main.c ****   //TODO: Turn off the LEDs
 132:Core/Src/main.c ****   
 133:Core/Src/main.c **** 
 134:Core/Src/main.c ****    HAL_GPIO_WritePin(GPIOB, 0b11111111, GPIO_PIN_RESET);  // Set just pin 0 high
 135:Core/Src/main.c ****   /* USER CODE END 2 */
 136:Core/Src/main.c **** 
 137:Core/Src/main.c ****   /* Infinite loop */
 138:Core/Src/main.c ****   /* USER CODE BEGIN WHILE */
 139:Core/Src/main.c ****   while (1)
 140:Core/Src/main.c ****   {
 141:Core/Src/main.c ****     /* USER CODE END WHILE */
 142:Core/Src/main.c **** 
 143:Core/Src/main.c ****     /* USER CODE BEGIN 3 */
 144:Core/Src/main.c ****   }
 145:Core/Src/main.c ****   /* USER CODE END 3 */
 146:Core/Src/main.c **** }
 147:Core/Src/main.c **** 
ARM GAS  C:\Users\Lenovo\AppData\Local\Temp\ccm6tDFF.s 			page 4


 148:Core/Src/main.c **** /**
 149:Core/Src/main.c ****   * @brief System Clock Configuration
 150:Core/Src/main.c ****   * @retval None
 151:Core/Src/main.c ****   */
 152:Core/Src/main.c **** void SystemClock_Config(void)
 153:Core/Src/main.c **** {
 154:Core/Src/main.c ****   RCC_OscInitTypeDef RCC_OscInitStruct = {0};
 155:Core/Src/main.c ****   RCC_ClkInitTypeDef RCC_ClkInitStruct = {0};
 156:Core/Src/main.c **** 
 157:Core/Src/main.c ****   /** Initializes the RCC Oscillators according to the specified parameters
 158:Core/Src/main.c ****   * in the RCC_OscInitTypeDef structure.
 159:Core/Src/main.c ****   */
 160:Core/Src/main.c ****   RCC_OscInitStruct.OscillatorType = RCC_OSCILLATORTYPE_HSI;
 161:Core/Src/main.c ****   RCC_OscInitStruct.HSIState = RCC_HSI_ON;
 162:Core/Src/main.c ****   RCC_OscInitStruct.HSICalibrationValue = RCC_HSICALIBRATION_DEFAULT;
 163:Core/Src/main.c ****   RCC_OscInitStruct.PLL.PLLState = RCC_PLL_NONE;
 164:Core/Src/main.c ****   if (HAL_RCC_OscConfig(&RCC_OscInitStruct) != HAL_OK)
 165:Core/Src/main.c ****   {
 166:Core/Src/main.c ****     Error_Handler();
 167:Core/Src/main.c ****   }
 168:Core/Src/main.c **** 
 169:Core/Src/main.c ****   /** Initializes the CPU, AHB and APB buses clocks
 170:Core/Src/main.c ****   */
 171:Core/Src/main.c ****   RCC_ClkInitStruct.ClockType = RCC_CLOCKTYPE_HCLK|RCC_CLOCKTYPE_SYSCLK
 172:Core/Src/main.c ****                               |RCC_CLOCKTYPE_PCLK1;
 173:Core/Src/main.c ****   RCC_ClkInitStruct.SYSCLKSource = RCC_SYSCLKSOURCE_HSI;
 174:Core/Src/main.c ****   RCC_ClkInitStruct.AHBCLKDivider = RCC_SYSCLK_DIV1;
 175:Core/Src/main.c ****   RCC_ClkInitStruct.APB1CLKDivider = RCC_HCLK_DIV1;
 176:Core/Src/main.c **** 
 177:Core/Src/main.c ****   if (HAL_RCC_ClockConfig(&RCC_ClkInitStruct, FLASH_LATENCY_0) != HAL_OK)
 178:Core/Src/main.c ****   {
 179:Core/Src/main.c ****     Error_Handler();
 180:Core/Src/main.c ****   }
 181:Core/Src/main.c **** }
 182:Core/Src/main.c **** 
 183:Core/Src/main.c **** /**
 184:Core/Src/main.c ****   * @brief GPIO Initialization Function
 185:Core/Src/main.c ****   * @param None
 186:Core/Src/main.c ****   * @retval None
 187:Core/Src/main.c ****   */
 188:Core/Src/main.c **** static void MX_GPIO_Init(void)
 189:Core/Src/main.c **** {
  26              		.loc 1 189 1 view -0
  27              		.cfi_startproc
  28              		@ args = 0, pretend = 0, frame = 32
  29              		@ frame_needed = 0, uses_anonymous_args = 0
  30 0000 10B5     		push	{r4, lr}
  31              	.LCFI0:
  32              		.cfi_def_cfa_offset 8
  33              		.cfi_offset 4, -8
  34              		.cfi_offset 14, -4
  35 0002 88B0     		sub	sp, sp, #32
  36              	.LCFI1:
  37              		.cfi_def_cfa_offset 40
 190:Core/Src/main.c ****   GPIO_InitTypeDef GPIO_InitStruct = {0};
  38              		.loc 1 190 3 view .LVU1
  39              		.loc 1 190 20 is_stmt 0 view .LVU2
ARM GAS  C:\Users\Lenovo\AppData\Local\Temp\ccm6tDFF.s 			page 5


  40 0004 1422     		movs	r2, #20
  41 0006 0021     		movs	r1, #0
  42 0008 03A8     		add	r0, sp, #12
  43 000a FFF7FEFF 		bl	memset
  44              	.LVL0:
 191:Core/Src/main.c **** /* USER CODE BEGIN MX_GPIO_Init_1 */
 192:Core/Src/main.c **** /* USER CODE END MX_GPIO_Init_1 */
 193:Core/Src/main.c **** 
 194:Core/Src/main.c ****   /* GPIO Ports Clock Enable */
 195:Core/Src/main.c ****   __HAL_RCC_GPIOB_CLK_ENABLE();
  45              		.loc 1 195 3 is_stmt 1 view .LVU3
  46              	.LBB4:
  47              		.loc 1 195 3 view .LVU4
  48              		.loc 1 195 3 view .LVU5
  49 000e 134B     		ldr	r3, .L2
  50 0010 5A69     		ldr	r2, [r3, #20]
  51 0012 8021     		movs	r1, #128
  52 0014 C902     		lsls	r1, r1, #11
  53 0016 0A43     		orrs	r2, r1
  54 0018 5A61     		str	r2, [r3, #20]
  55              		.loc 1 195 3 view .LVU6
  56 001a 5A69     		ldr	r2, [r3, #20]
  57 001c 0A40     		ands	r2, r1
  58 001e 0192     		str	r2, [sp, #4]
  59              		.loc 1 195 3 view .LVU7
  60 0020 019A     		ldr	r2, [sp, #4]
  61              	.LBE4:
  62              		.loc 1 195 3 view .LVU8
 196:Core/Src/main.c ****   __HAL_RCC_GPIOA_CLK_ENABLE();
  63              		.loc 1 196 3 view .LVU9
  64              	.LBB5:
  65              		.loc 1 196 3 view .LVU10
  66              		.loc 1 196 3 view .LVU11
  67 0022 5A69     		ldr	r2, [r3, #20]
  68 0024 8021     		movs	r1, #128
  69 0026 8902     		lsls	r1, r1, #10
  70 0028 0A43     		orrs	r2, r1
  71 002a 5A61     		str	r2, [r3, #20]
  72              		.loc 1 196 3 view .LVU12
  73 002c 5B69     		ldr	r3, [r3, #20]
  74 002e 0B40     		ands	r3, r1
  75 0030 0293     		str	r3, [sp, #8]
  76              		.loc 1 196 3 view .LVU13
  77 0032 029B     		ldr	r3, [sp, #8]
  78              	.LBE5:
  79              		.loc 1 196 3 view .LVU14
 197:Core/Src/main.c **** 
 198:Core/Src/main.c ****   /*Configure GPIO pin Output Level */
 199:Core/Src/main.c ****   HAL_GPIO_WritePin(GPIOB, GPIO_PIN_0|GPIO_PIN_1, GPIO_PIN_RESET);
  80              		.loc 1 199 3 view .LVU15
  81 0034 0A4C     		ldr	r4, .L2+4
  82 0036 0022     		movs	r2, #0
  83 0038 0321     		movs	r1, #3
  84 003a 2000     		movs	r0, r4
  85 003c FFF7FEFF 		bl	HAL_GPIO_WritePin
  86              	.LVL1:
 200:Core/Src/main.c **** 
ARM GAS  C:\Users\Lenovo\AppData\Local\Temp\ccm6tDFF.s 			page 6


 201:Core/Src/main.c ****   /*Configure GPIO pins : PB0 PB1 */
 202:Core/Src/main.c ****   GPIO_InitStruct.Pin = GPIO_PIN_0|GPIO_PIN_1;
  87              		.loc 1 202 3 view .LVU16
  88              		.loc 1 202 23 is_stmt 0 view .LVU17
  89 0040 0323     		movs	r3, #3
  90 0042 0393     		str	r3, [sp, #12]
 203:Core/Src/main.c ****   GPIO_InitStruct.Mode = GPIO_MODE_OUTPUT_PP;
  91              		.loc 1 203 3 is_stmt 1 view .LVU18
  92              		.loc 1 203 24 is_stmt 0 view .LVU19
  93 0044 023B     		subs	r3, r3, #2
  94 0046 0493     		str	r3, [sp, #16]
 204:Core/Src/main.c ****   GPIO_InitStruct.Pull = GPIO_NOPULL;
  95              		.loc 1 204 3 is_stmt 1 view .LVU20
  96              		.loc 1 204 24 is_stmt 0 view .LVU21
  97 0048 0023     		movs	r3, #0
  98 004a 0593     		str	r3, [sp, #20]
 205:Core/Src/main.c ****   GPIO_InitStruct.Speed = GPIO_SPEED_FREQ_LOW;
  99              		.loc 1 205 3 is_stmt 1 view .LVU22
 100              		.loc 1 205 25 is_stmt 0 view .LVU23
 101 004c 0693     		str	r3, [sp, #24]
 206:Core/Src/main.c ****   HAL_GPIO_Init(GPIOB, &GPIO_InitStruct);
 102              		.loc 1 206 3 is_stmt 1 view .LVU24
 103 004e 03A9     		add	r1, sp, #12
 104 0050 2000     		movs	r0, r4
 105 0052 FFF7FEFF 		bl	HAL_GPIO_Init
 106              	.LVL2:
 207:Core/Src/main.c **** 
 208:Core/Src/main.c **** /* USER CODE BEGIN MX_GPIO_Init_2 */
 209:Core/Src/main.c **** /* USER CODE END MX_GPIO_Init_2 */
 210:Core/Src/main.c **** }
 107              		.loc 1 210 1 is_stmt 0 view .LVU25
 108 0056 08B0     		add	sp, sp, #32
 109              		@ sp needed
 110 0058 10BD     		pop	{r4, pc}
 111              	.L3:
 112 005a C046     		.align	2
 113              	.L2:
 114 005c 00100240 		.word	1073876992
 115 0060 00040048 		.word	1207960576
 116              		.cfi_endproc
 117              	.LFE42:
 119              		.global	__aeabi_idiv
 120              		.global	__aeabi_lmul
 121              		.section	.text.calculate_mandelbrot_fixed_point_arithmetic,"ax",%progbits
 122              		.align	1
 123              		.global	calculate_mandelbrot_fixed_point_arithmetic
 124              		.syntax unified
 125              		.code	16
 126              		.thumb_func
 128              	calculate_mandelbrot_fixed_point_arithmetic:
 129              	.LVL3:
 130              	.LFB43:
 211:Core/Src/main.c **** 
 212:Core/Src/main.c **** /* USER CODE BEGIN 4 */
 213:Core/Src/main.c **** //TODO: Mandelbroat using variable type integers and fixed point arithmetic
 214:Core/Src/main.c **** uint64_t calculate_mandelbrot_fixed_point_arithmetic(int width, int height, int max_iterations){
 131              		.loc 1 214 96 is_stmt 1 view -0
ARM GAS  C:\Users\Lenovo\AppData\Local\Temp\ccm6tDFF.s 			page 7


 132              		.cfi_startproc
 133              		@ args = 0, pretend = 0, frame = 80
 134              		@ frame_needed = 0, uses_anonymous_args = 0
 135              		.loc 1 214 96 is_stmt 0 view .LVU27
 136 0000 F0B5     		push	{r4, r5, r6, r7, lr}
 137              	.LCFI2:
 138              		.cfi_def_cfa_offset 20
 139              		.cfi_offset 4, -20
 140              		.cfi_offset 5, -16
 141              		.cfi_offset 6, -12
 142              		.cfi_offset 7, -8
 143              		.cfi_offset 14, -4
 144 0002 DE46     		mov	lr, fp
 145 0004 5746     		mov	r7, r10
 146 0006 4E46     		mov	r6, r9
 147 0008 4546     		mov	r5, r8
 148 000a E0B5     		push	{r5, r6, r7, lr}
 149              	.LCFI3:
 150              		.cfi_def_cfa_offset 36
 151              		.cfi_offset 8, -36
 152              		.cfi_offset 9, -32
 153              		.cfi_offset 10, -28
 154              		.cfi_offset 11, -24
 155 000c 95B0     		sub	sp, sp, #84
 156              	.LCFI4:
 157              		.cfi_def_cfa_offset 120
 158 000e 8346     		mov	fp, r0
 159 0010 1391     		str	r1, [sp, #76]
 160 0012 9146     		mov	r9, r2
 215:Core/Src/main.c ****   uint64_t mandelbrot_sum = 0;
 161              		.loc 1 215 3 is_stmt 1 view .LVU28
 162              	.LVL4:
 216:Core/Src/main.c ****     //TODO: Complete the function implementation
 217:Core/Src/main.c ****   for (int y = 0; y < height; y++) {
 163              		.loc 1 217 3 view .LVU29
 164              	.LBB6:
 165              		.loc 1 217 8 view .LVU30
 166              		.loc 1 217 12 is_stmt 0 view .LVU31
 167 0014 0023     		movs	r3, #0
 168 0016 1293     		str	r3, [sp, #72]
 169              	.LBE6:
 215:Core/Src/main.c ****   uint64_t mandelbrot_sum = 0;
 170              		.loc 1 215 12 view .LVU32
 171 0018 0023     		movs	r3, #0
 172 001a 0024     		movs	r4, #0
 173 001c 1093     		str	r3, [sp, #64]
 174 001e 1194     		str	r4, [sp, #68]
 175 0020 009C     		ldr	r4, [sp]
 176 0022 019D     		ldr	r5, [sp, #4]
 177              	.LBB13:
 178              		.loc 1 217 3 view .LVU33
 179 0024 8BE0     		b	.L5
 180              	.LVL5:
 181              	.L13:
 182              	.LBB7:
 183              	.LBB8:
 184              	.LBB9:
ARM GAS  C:\Users\Lenovo\AppData\Local\Temp\ccm6tDFF.s 			page 8


 218:Core/Src/main.c ****           for (int x = 0; x < width; x++) {
 219:Core/Src/main.c ****               // Scale x0 to [-2.5, 1.0] in fixed-point(converting float to fixed point)
 220:Core/Src/main.c ****               int64_t x0 = ((x * 3 * SCALE) / width) - (5 * SCALE / 2);  // x0 = x/width * 3.5 - 2.
 221:Core/Src/main.c ****               // Scale y0 to [-1.0, 1.0] in fixed-point
 222:Core/Src/main.c ****               int64_t y0 = ((y * 2 * SCALE) / height) - (1 * SCALE);     // y0 = y/height * 2.0 - 1
 223:Core/Src/main.c **** 
 224:Core/Src/main.c ****               int64_t xi = 0, yi = 0;
 225:Core/Src/main.c ****               int iteration = 0;
 226:Core/Src/main.c **** 
 227:Core/Src/main.c ****               while (iteration < max_iterations) {
 228:Core/Src/main.c ****                   // Compute xi² and yi² (fixed-point multiplication)
 229:Core/Src/main.c ****                   int64_t xi_sq = (xi * xi) >> SCALE_BITS;
 230:Core/Src/main.c ****                   int64_t yi_sq = (yi * yi) >> SCALE_BITS;
 231:Core/Src/main.c **** 
 232:Core/Src/main.c ****                   // Check escape condition (xi² + yi² > 4.0 in fixed-point)
 233:Core/Src/main.c ****                   if (xi_sq + yi_sq > (4 * SCALE)) {
 234:Core/Src/main.c ****                       break;
 235:Core/Src/main.c ****                   }
 236:Core/Src/main.c **** 
 237:Core/Src/main.c ****                   // Compute new xi and yi (fixed-point arithmetic)
 238:Core/Src/main.c ****                   int64_t temp = xi_sq - yi_sq;
 185              		.loc 1 238 19 is_stmt 1 view .LVU34
 186              		.loc 1 238 27 is_stmt 0 view .LVU35
 187 0026 3200     		movs	r2, r6
 188 0028 3B00     		movs	r3, r7
 189 002a 0098     		ldr	r0, [sp]
 190 002c 0199     		ldr	r1, [sp, #4]
 191              	.LVL6:
 192              		.loc 1 238 27 view .LVU36
 193 002e 121A     		subs	r2, r2, r0
 194 0030 8B41     		sbcs	r3, r3, r1
 195 0032 0892     		str	r2, [sp, #32]
 196 0034 0993     		str	r3, [sp, #36]
 197              	.LVL7:
 239:Core/Src/main.c ****                   yi = ((2 * xi * yi) >> SCALE_BITS) + y0;
 198              		.loc 1 239 19 is_stmt 1 view .LVU37
 199              		.loc 1 239 33 is_stmt 0 view .LVU38
 200 0036 069A     		ldr	r2, [sp, #24]
 201 0038 079B     		ldr	r3, [sp, #28]
 202              	.LVL8:
 203              		.loc 1 239 33 view .LVU39
 204 003a 0498     		ldr	r0, [sp, #16]
 205 003c 0599     		ldr	r1, [sp, #20]
 206 003e FFF7FEFF 		bl	__aeabi_lmul
 207              	.LVL9:
 208 0042 0200     		movs	r2, r0
 209 0044 0B00     		movs	r3, r1
 210 0046 9218     		adds	r2, r2, r2
 211 0048 5B41     		adcs	r3, r3, r3
 212              		.loc 1 239 39 view .LVU40
 213 004a 1904     		lsls	r1, r3, #16
 214 004c 100C     		lsrs	r0, r2, #16
 215 004e 0290     		str	r0, [sp, #8]
 216 0050 0843     		orrs	r0, r1
 217 0052 0290     		str	r0, [sp, #8]
 218 0054 1B14     		asrs	r3, r3, #16
 219 0056 0393     		str	r3, [sp, #12]
ARM GAS  C:\Users\Lenovo\AppData\Local\Temp\ccm6tDFF.s 			page 9


 220              		.loc 1 239 22 view .LVU41
 221 0058 0299     		ldr	r1, [sp, #8]
 222 005a 039A     		ldr	r2, [sp, #12]
 223 005c 0C9B     		ldr	r3, [sp, #48]
 224 005e 0D9C     		ldr	r4, [sp, #52]
 225 0060 C918     		adds	r1, r1, r3
 226 0062 6241     		adcs	r2, r2, r4
 227 0064 0691     		str	r1, [sp, #24]
 228 0066 0792     		str	r2, [sp, #28]
 229              	.LVL10:
 240:Core/Src/main.c ****                   xi = temp + x0;
 230              		.loc 1 240 19 is_stmt 1 view .LVU42
 231              		.loc 1 240 22 is_stmt 0 view .LVU43
 232 0068 089A     		ldr	r2, [sp, #32]
 233 006a 099B     		ldr	r3, [sp, #36]
 234 006c 0A98     		ldr	r0, [sp, #40]
 235 006e 0B99     		ldr	r1, [sp, #44]
 236 0070 1218     		adds	r2, r2, r0
 237 0072 4B41     		adcs	r3, r3, r1
 238 0074 0492     		str	r2, [sp, #16]
 239 0076 0593     		str	r3, [sp, #20]
 240              	.LVL11:
 241:Core/Src/main.c **** 
 242:Core/Src/main.c ****                   iteration++;
 241              		.loc 1 242 19 is_stmt 1 view .LVU44
 242              		.loc 1 242 28 is_stmt 0 view .LVU45
 243 0078 0123     		movs	r3, #1
 244 007a 9C46     		mov	ip, r3
 245 007c E244     		add	r10, r10, ip
 246              	.LVL12:
 247              	.L6:
 248              		.loc 1 242 28 view .LVU46
 249              	.LBE9:
 227:Core/Src/main.c ****                   // Compute xi² and yi² (fixed-point multiplication)
 250              		.loc 1 227 32 is_stmt 1 view .LVU47
 251 007e CA45     		cmp	r10, r9
 252 0080 24DA     		bge	.L7
 253              	.LBB10:
 229:Core/Src/main.c ****                   int64_t yi_sq = (yi * yi) >> SCALE_BITS;
 254              		.loc 1 229 19 view .LVU48
 229:Core/Src/main.c ****                   int64_t yi_sq = (yi * yi) >> SCALE_BITS;
 255              		.loc 1 229 39 is_stmt 0 view .LVU49
 256 0082 0498     		ldr	r0, [sp, #16]
 257 0084 0599     		ldr	r1, [sp, #20]
 258 0086 0200     		movs	r2, r0
 259 0088 0B00     		movs	r3, r1
 260 008a FFF7FEFF 		bl	__aeabi_lmul
 261              	.LVL13:
 229:Core/Src/main.c ****                   int64_t yi_sq = (yi * yi) >> SCALE_BITS;
 262              		.loc 1 229 27 view .LVU50
 263 008e 0B04     		lsls	r3, r1, #16
 264 0090 060C     		lsrs	r6, r0, #16
 265 0092 1E43     		orrs	r6, r3
 266 0094 0F14     		asrs	r7, r1, #16
 267              	.LVL14:
 230:Core/Src/main.c **** 
 268              		.loc 1 230 19 is_stmt 1 view .LVU51
ARM GAS  C:\Users\Lenovo\AppData\Local\Temp\ccm6tDFF.s 			page 10


 230:Core/Src/main.c **** 
 269              		.loc 1 230 39 is_stmt 0 view .LVU52
 270 0096 0698     		ldr	r0, [sp, #24]
 271 0098 0799     		ldr	r1, [sp, #28]
 272 009a 0200     		movs	r2, r0
 273 009c 0B00     		movs	r3, r1
 274 009e FFF7FEFF 		bl	__aeabi_lmul
 275              	.LVL15:
 230:Core/Src/main.c **** 
 276              		.loc 1 230 27 view .LVU53
 277 00a2 0B04     		lsls	r3, r1, #16
 278 00a4 020C     		lsrs	r2, r0, #16
 279 00a6 0092     		str	r2, [sp]
 280 00a8 1A43     		orrs	r2, r3
 281 00aa 0092     		str	r2, [sp]
 282 00ac 0B14     		asrs	r3, r1, #16
 283 00ae 0193     		str	r3, [sp, #4]
 284              	.LVL16:
 233:Core/Src/main.c ****                       break;
 285              		.loc 1 233 19 is_stmt 1 view .LVU54
 233:Core/Src/main.c ****                       break;
 286              		.loc 1 233 29 is_stmt 0 view .LVU55
 287 00b0 3200     		movs	r2, r6
 288 00b2 3B00     		movs	r3, r7
 289 00b4 0098     		ldr	r0, [sp]
 290 00b6 0199     		ldr	r1, [sp, #4]
 291 00b8 1218     		adds	r2, r2, r0
 292 00ba 4B41     		adcs	r3, r3, r1
 293 00bc 1100     		movs	r1, r2
 233:Core/Src/main.c ****                       break;
 294              		.loc 1 233 22 view .LVU56
 295 00be 002B     		cmp	r3, #0
 296 00c0 04DC     		bgt	.L7
 297 00c2 B0D1     		bne	.L13
 298 00c4 8023     		movs	r3, #128
 299 00c6 DB02     		lsls	r3, r3, #11
 300 00c8 9942     		cmp	r1, r3
 301 00ca ACD9     		bls	.L13
 302              	.LVL17:
 303              	.L7:
 233:Core/Src/main.c ****                       break;
 304              		.loc 1 233 22 view .LVU57
 305              	.LBE10:
 243:Core/Src/main.c ****               }
 244:Core/Src/main.c **** 
 245:Core/Src/main.c ****               mandelbrot_sum += iteration;
 306              		.loc 1 245 30 view .LVU58
 307 00cc 009C     		ldr	r4, [sp]
 308 00ce 019D     		ldr	r5, [sp, #4]
 309              		.loc 1 245 15 is_stmt 1 view .LVU59
 310              		.loc 1 245 30 is_stmt 0 view .LVU60
 311 00d0 5346     		mov	r3, r10
 312 00d2 0E93     		str	r3, [sp, #56]
 313 00d4 DB17     		asrs	r3, r3, #31
 314 00d6 0F93     		str	r3, [sp, #60]
 315 00d8 109A     		ldr	r2, [sp, #64]
 316 00da 119B     		ldr	r3, [sp, #68]
ARM GAS  C:\Users\Lenovo\AppData\Local\Temp\ccm6tDFF.s 			page 11


 317 00dc 0E98     		ldr	r0, [sp, #56]
 318 00de 0F99     		ldr	r1, [sp, #60]
 319 00e0 1218     		adds	r2, r2, r0
 320 00e2 4B41     		adcs	r3, r3, r1
 321 00e4 1092     		str	r2, [sp, #64]
 322 00e6 1193     		str	r3, [sp, #68]
 323              	.LVL18:
 324              		.loc 1 245 30 view .LVU61
 325              	.LBE8:
 218:Core/Src/main.c ****               // Scale x0 to [-2.5, 1.0] in fixed-point(converting float to fixed point)
 326              		.loc 1 218 39 is_stmt 1 discriminator 2 view .LVU62
 327 00e8 0123     		movs	r3, #1
 328 00ea 9C46     		mov	ip, r3
 329 00ec E044     		add	r8, r8, ip
 330              	.LVL19:
 331              	.L11:
 218:Core/Src/main.c ****               // Scale x0 to [-2.5, 1.0] in fixed-point(converting float to fixed point)
 332              		.loc 1 218 29 discriminator 1 view .LVU63
 333 00ee D845     		cmp	r8, fp
 334 00f0 22DA     		bge	.L14
 335              	.LBB11:
 220:Core/Src/main.c ****               // Scale y0 to [-1.0, 1.0] in fixed-point
 336              		.loc 1 220 15 view .LVU64
 220:Core/Src/main.c ****               // Scale y0 to [-1.0, 1.0] in fixed-point
 337              		.loc 1 220 36 is_stmt 0 view .LVU65
 338 00f2 4346     		mov	r3, r8
 339 00f4 5800     		lsls	r0, r3, #1
 340 00f6 4044     		add	r0, r0, r8
 341 00f8 0004     		lsls	r0, r0, #16
 220:Core/Src/main.c ****               // Scale y0 to [-1.0, 1.0] in fixed-point
 342              		.loc 1 220 45 view .LVU66
 343 00fa 5946     		mov	r1, fp
 344 00fc FFF7FEFF 		bl	__aeabi_idiv
 345              	.LVL20:
 220:Core/Src/main.c ****               // Scale y0 to [-1.0, 1.0] in fixed-point
 346              		.loc 1 220 54 view .LVU67
 347 0100 174B     		ldr	r3, .L16
 348 0102 9C46     		mov	ip, r3
 349 0104 6044     		add	r0, r0, ip
 220:Core/Src/main.c ****               // Scale y0 to [-1.0, 1.0] in fixed-point
 350              		.loc 1 220 23 view .LVU68
 351 0106 0A90     		str	r0, [sp, #40]
 352 0108 C317     		asrs	r3, r0, #31
 353 010a 0B93     		str	r3, [sp, #44]
 354              	.LVL21:
 222:Core/Src/main.c **** 
 355              		.loc 1 222 15 is_stmt 1 view .LVU69
 222:Core/Src/main.c **** 
 356              		.loc 1 222 36 is_stmt 0 view .LVU70
 357 010c 129B     		ldr	r3, [sp, #72]
 358 010e 5804     		lsls	r0, r3, #17
 222:Core/Src/main.c **** 
 359              		.loc 1 222 45 view .LVU71
 360 0110 1399     		ldr	r1, [sp, #76]
 361 0112 FFF7FEFF 		bl	__aeabi_idiv
 362              	.LVL22:
 222:Core/Src/main.c **** 
ARM GAS  C:\Users\Lenovo\AppData\Local\Temp\ccm6tDFF.s 			page 12


 363              		.loc 1 222 55 view .LVU72
 364 0116 134B     		ldr	r3, .L16+4
 365 0118 9C46     		mov	ip, r3
 366 011a 6044     		add	r0, r0, ip
 222:Core/Src/main.c **** 
 367              		.loc 1 222 23 view .LVU73
 368 011c 0C90     		str	r0, [sp, #48]
 369 011e C317     		asrs	r3, r0, #31
 370 0120 0D93     		str	r3, [sp, #52]
 371              	.LVL23:
 224:Core/Src/main.c ****               int iteration = 0;
 372              		.loc 1 224 15 is_stmt 1 view .LVU74
 225:Core/Src/main.c **** 
 373              		.loc 1 225 15 view .LVU75
 227:Core/Src/main.c ****                   // Compute xi² and yi² (fixed-point multiplication)
 374              		.loc 1 227 15 view .LVU76
 225:Core/Src/main.c **** 
 375              		.loc 1 225 19 is_stmt 0 view .LVU77
 376 0122 0023     		movs	r3, #0
 377 0124 9A46     		mov	r10, r3
 224:Core/Src/main.c ****               int iteration = 0;
 378              		.loc 1 224 31 view .LVU78
 379 0126 0022     		movs	r2, #0
 380 0128 0023     		movs	r3, #0
 381 012a 0692     		str	r2, [sp, #24]
 382 012c 0793     		str	r3, [sp, #28]
 224:Core/Src/main.c ****               int iteration = 0;
 383              		.loc 1 224 23 view .LVU79
 384 012e 0492     		str	r2, [sp, #16]
 385 0130 0593     		str	r3, [sp, #20]
 386 0132 0094     		str	r4, [sp]
 387 0134 0195     		str	r5, [sp, #4]
 227:Core/Src/main.c ****                   // Compute xi² and yi² (fixed-point multiplication)
 388              		.loc 1 227 21 view .LVU80
 389 0136 A2E7     		b	.L6
 390              	.LVL24:
 391              	.L14:
 227:Core/Src/main.c ****                   // Compute xi² and yi² (fixed-point multiplication)
 392              		.loc 1 227 21 view .LVU81
 393              	.LBE11:
 394              	.LBE7:
 217:Core/Src/main.c ****           for (int x = 0; x < width; x++) {
 395              		.loc 1 217 32 is_stmt 1 discriminator 2 view .LVU82
 396 0138 129B     		ldr	r3, [sp, #72]
 397 013a 0133     		adds	r3, r3, #1
 398 013c 1293     		str	r3, [sp, #72]
 399              	.LVL25:
 400              	.L5:
 217:Core/Src/main.c ****           for (int x = 0; x < width; x++) {
 401              		.loc 1 217 21 discriminator 1 view .LVU83
 402 013e 129B     		ldr	r3, [sp, #72]
 403 0140 139A     		ldr	r2, [sp, #76]
 404 0142 9342     		cmp	r3, r2
 405 0144 02DA     		bge	.L15
 406              	.LBB12:
 218:Core/Src/main.c ****               // Scale x0 to [-2.5, 1.0] in fixed-point(converting float to fixed point)
 407              		.loc 1 218 20 is_stmt 0 view .LVU84
ARM GAS  C:\Users\Lenovo\AppData\Local\Temp\ccm6tDFF.s 			page 13


 408 0146 0023     		movs	r3, #0
 409 0148 9846     		mov	r8, r3
 410 014a D0E7     		b	.L11
 411              	.LVL26:
 412              	.L15:
 218:Core/Src/main.c ****               // Scale x0 to [-2.5, 1.0] in fixed-point(converting float to fixed point)
 413              		.loc 1 218 20 view .LVU85
 414              	.LBE12:
 415              	.LBE13:
 246:Core/Src/main.c ****           }
 247:Core/Src/main.c ****       }
 248:Core/Src/main.c **** 
 249:Core/Src/main.c ****     return mandelbrot_sum;
 416              		.loc 1 249 5 is_stmt 1 view .LVU86
 250:Core/Src/main.c **** 
 251:Core/Src/main.c **** }
 417              		.loc 1 251 1 is_stmt 0 view .LVU87
 418 014c 1098     		ldr	r0, [sp, #64]
 419 014e 1199     		ldr	r1, [sp, #68]
 420 0150 15B0     		add	sp, sp, #84
 421              		@ sp needed
 422              	.LVL27:
 423              	.LVL28:
 424              		.loc 1 251 1 view .LVU88
 425 0152 F0BC     		pop	{r4, r5, r6, r7}
 426 0154 BB46     		mov	fp, r7
 427 0156 B246     		mov	r10, r6
 428 0158 A946     		mov	r9, r5
 429 015a A046     		mov	r8, r4
 430 015c F0BD     		pop	{r4, r5, r6, r7, pc}
 431              	.L17:
 432 015e C046     		.align	2
 433              	.L16:
 434 0160 0080FDFF 		.word	-163840
 435 0164 0000FFFF 		.word	-65536
 436              		.cfi_endproc
 437              	.LFE43:
 439              		.global	__aeabi_i2d
 440              		.global	__aeabi_ddiv
 441              		.global	__aeabi_dmul
 442              		.global	__aeabi_dsub
 443              		.global	__aeabi_dadd
 444              		.global	__aeabi_dcmpgt
 445              		.section	.text.calculate_mandelbrot_double,"ax",%progbits
 446              		.align	1
 447              		.global	calculate_mandelbrot_double
 448              		.syntax unified
 449              		.code	16
 450              		.thumb_func
 452              	calculate_mandelbrot_double:
 453              	.LVL29:
 454              	.LFB44:
 252:Core/Src/main.c **** 
 253:Core/Src/main.c **** //TODO: Mandelbroat using variable type double
 254:Core/Src/main.c **** uint64_t calculate_mandelbrot_double(int width, int height, int max_iterations){
 455              		.loc 1 254 80 is_stmt 1 view -0
 456              		.cfi_startproc
ARM GAS  C:\Users\Lenovo\AppData\Local\Temp\ccm6tDFF.s 			page 14


 457              		@ args = 0, pretend = 0, frame = 64
 458              		@ frame_needed = 0, uses_anonymous_args = 0
 459              		.loc 1 254 80 is_stmt 0 view .LVU90
 460 0000 F0B5     		push	{r4, r5, r6, r7, lr}
 461              	.LCFI5:
 462              		.cfi_def_cfa_offset 20
 463              		.cfi_offset 4, -20
 464              		.cfi_offset 5, -16
 465              		.cfi_offset 6, -12
 466              		.cfi_offset 7, -8
 467              		.cfi_offset 14, -4
 468 0002 DE46     		mov	lr, fp
 469 0004 5746     		mov	r7, r10
 470 0006 4E46     		mov	r6, r9
 471 0008 4546     		mov	r5, r8
 472 000a E0B5     		push	{r5, r6, r7, lr}
 473              	.LCFI6:
 474              		.cfi_def_cfa_offset 36
 475              		.cfi_offset 8, -36
 476              		.cfi_offset 9, -32
 477              		.cfi_offset 10, -28
 478              		.cfi_offset 11, -24
 479 000c 91B0     		sub	sp, sp, #68
 480              	.LCFI7:
 481              		.cfi_def_cfa_offset 104
 482 000e 8346     		mov	fp, r0
 483 0010 0F91     		str	r1, [sp, #60]
 255:Core/Src/main.c ****     uint64_t mandelbrot_sum = 0;
 484              		.loc 1 255 5 is_stmt 1 view .LVU91
 485              	.LVL30:
 256:Core/Src/main.c ****     //TODO: Complete the function implementation
 257:Core/Src/main.c ****     
 258:Core/Src/main.c ****     for (int y = 0; y < height; y++) {
 486              		.loc 1 258 5 view .LVU92
 487              	.LBB14:
 488              		.loc 1 258 10 view .LVU93
 489              		.loc 1 258 14 is_stmt 0 view .LVU94
 490 0012 0023     		movs	r3, #0
 491 0014 0E93     		str	r3, [sp, #56]
 492              	.LBE14:
 255:Core/Src/main.c ****     uint64_t mandelbrot_sum = 0;
 493              		.loc 1 255 14 view .LVU95
 494 0016 0023     		movs	r3, #0
 495 0018 0024     		movs	r4, #0
 496 001a 0C93     		str	r3, [sp, #48]
 497 001c 0D94     		str	r4, [sp, #52]
 498 001e 0592     		str	r2, [sp, #20]
 499              	.LBB21:
 500              		.loc 1 258 5 view .LVU96
 501 0020 8DE0     		b	.L19
 502              	.LVL31:
 503              	.L26:
 504              	.LBB15:
 505              	.LBB16:
 506              	.LBB17:
 259:Core/Src/main.c ****            for (int x = 0; x < width; x++) {
 260:Core/Src/main.c ****                // Convert pixel coordinates to Mandelbrot coordinates (floating-point)
ARM GAS  C:\Users\Lenovo\AppData\Local\Temp\ccm6tDFF.s 			page 15


 261:Core/Src/main.c ****                double x0 = (double)x / width * 3.5 - 2.5;  // x0 ∈ [-2.5, 1.0]
 262:Core/Src/main.c ****                double y0 = (double)y / height * 2.0 - 1.0;  // y0 ∈ [-1.0, 1.0]
 263:Core/Src/main.c **** 
 264:Core/Src/main.c ****                double xi = 0.0, yi = 0.0;
 265:Core/Src/main.c ****                int iteration = 0;
 266:Core/Src/main.c **** 
 267:Core/Src/main.c ****                while (iteration < max_iterations) {
 268:Core/Src/main.c ****                    double xi_sq = xi * xi;
 269:Core/Src/main.c ****                    double yi_sq = yi * yi;
 270:Core/Src/main.c **** 
 271:Core/Src/main.c ****                    // Escape condition: xi² + yi² > 4.0
 272:Core/Src/main.c ****                    if (xi_sq + yi_sq > 4.0) {
 273:Core/Src/main.c ****                        break;
 274:Core/Src/main.c ****                    }
 275:Core/Src/main.c **** 
 276:Core/Src/main.c ****                    // Update zi = zi² + c (Mandelbrot formula)
 277:Core/Src/main.c ****                    double temp = xi_sq - yi_sq;
 507              		.loc 1 277 20 is_stmt 1 view .LVU97
 508              		.loc 1 277 27 is_stmt 0 view .LVU98
 509 0022 029A     		ldr	r2, [sp, #8]
 510 0024 039B     		ldr	r3, [sp, #12]
 511 0026 0098     		ldr	r0, [sp]
 512 0028 0199     		ldr	r1, [sp, #4]
 513 002a FFF7FEFF 		bl	__aeabi_dsub
 514              	.LVL32:
 515 002e 0090     		str	r0, [sp]
 516 0030 0191     		str	r1, [sp, #4]
 517              	.LVL33:
 278:Core/Src/main.c ****                    yi = 2 * xi * yi + y0;
 518              		.loc 1 278 20 is_stmt 1 view .LVU99
 519              		.loc 1 278 27 is_stmt 0 view .LVU100
 520 0032 3200     		movs	r2, r6
 521 0034 3B00     		movs	r3, r7
 522 0036 3000     		movs	r0, r6
 523              	.LVL34:
 524              		.loc 1 278 27 view .LVU101
 525 0038 3900     		movs	r1, r7
 526 003a FFF7FEFF 		bl	__aeabi_dadd
 527              	.LVL35:
 528              		.loc 1 278 32 view .LVU102
 529 003e 2200     		movs	r2, r4
 530 0040 2B00     		movs	r3, r5
 531 0042 FFF7FEFF 		bl	__aeabi_dmul
 532              	.LVL36:
 533              		.loc 1 278 23 view .LVU103
 534 0046 089A     		ldr	r2, [sp, #32]
 535 0048 099B     		ldr	r3, [sp, #36]
 536 004a FFF7FEFF 		bl	__aeabi_dadd
 537              	.LVL37:
 538 004e 0400     		movs	r4, r0
 539              	.LVL38:
 540              		.loc 1 278 23 view .LVU104
 541 0050 0D00     		movs	r5, r1
 542              	.LVL39:
 279:Core/Src/main.c ****                    xi = temp + x0;
 543              		.loc 1 279 20 is_stmt 1 view .LVU105
 544              		.loc 1 279 23 is_stmt 0 view .LVU106
ARM GAS  C:\Users\Lenovo\AppData\Local\Temp\ccm6tDFF.s 			page 16


 545 0052 009A     		ldr	r2, [sp]
 546 0054 019B     		ldr	r3, [sp, #4]
 547 0056 0698     		ldr	r0, [sp, #24]
 548 0058 0799     		ldr	r1, [sp, #28]
 549 005a FFF7FEFF 		bl	__aeabi_dadd
 550              	.LVL40:
 551 005e 0600     		movs	r6, r0
 552              	.LVL41:
 553              		.loc 1 279 23 view .LVU107
 554 0060 0F00     		movs	r7, r1
 555              	.LVL42:
 280:Core/Src/main.c **** 
 281:Core/Src/main.c ****                    iteration++;
 556              		.loc 1 281 20 is_stmt 1 view .LVU108
 557              		.loc 1 281 29 is_stmt 0 view .LVU109
 558 0062 0123     		movs	r3, #1
 559 0064 9C46     		mov	ip, r3
 560 0066 E044     		add	r8, r8, ip
 561              	.LVL43:
 562              	.L20:
 563              		.loc 1 281 29 view .LVU110
 564              	.LBE17:
 267:Core/Src/main.c ****                    double xi_sq = xi * xi;
 565              		.loc 1 267 33 is_stmt 1 view .LVU111
 566 0068 059B     		ldr	r3, [sp, #20]
 567 006a 9845     		cmp	r8, r3
 568 006c 1BDA     		bge	.L21
 569              	.LBB18:
 268:Core/Src/main.c ****                    double yi_sq = yi * yi;
 570              		.loc 1 268 20 view .LVU112
 268:Core/Src/main.c ****                    double yi_sq = yi * yi;
 571              		.loc 1 268 27 is_stmt 0 view .LVU113
 572 006e 3200     		movs	r2, r6
 573 0070 3B00     		movs	r3, r7
 574 0072 3000     		movs	r0, r6
 575 0074 3900     		movs	r1, r7
 576 0076 FFF7FEFF 		bl	__aeabi_dmul
 577              	.LVL44:
 578 007a 0090     		str	r0, [sp]
 579 007c 0191     		str	r1, [sp, #4]
 580              	.LVL45:
 269:Core/Src/main.c **** 
 581              		.loc 1 269 20 is_stmt 1 view .LVU114
 269:Core/Src/main.c **** 
 582              		.loc 1 269 27 is_stmt 0 view .LVU115
 583 007e 2200     		movs	r2, r4
 584 0080 2B00     		movs	r3, r5
 585 0082 2000     		movs	r0, r4
 586              	.LVL46:
 269:Core/Src/main.c **** 
 587              		.loc 1 269 27 view .LVU116
 588 0084 2900     		movs	r1, r5
 589 0086 FFF7FEFF 		bl	__aeabi_dmul
 590              	.LVL47:
 591 008a 0200     		movs	r2, r0
 592 008c 0B00     		movs	r3, r1
 593              	.LVL48:
ARM GAS  C:\Users\Lenovo\AppData\Local\Temp\ccm6tDFF.s 			page 17


 272:Core/Src/main.c ****                        break;
 594              		.loc 1 272 20 is_stmt 1 view .LVU117
 272:Core/Src/main.c ****                        break;
 595              		.loc 1 272 30 is_stmt 0 view .LVU118
 596 008e 0292     		str	r2, [sp, #8]
 597 0090 0393     		str	r3, [sp, #12]
 598 0092 0098     		ldr	r0, [sp]
 599 0094 0199     		ldr	r1, [sp, #4]
 600 0096 FFF7FEFF 		bl	__aeabi_dadd
 601              	.LVL49:
 272:Core/Src/main.c ****                        break;
 602              		.loc 1 272 23 view .LVU119
 603 009a 0022     		movs	r2, #0
 604 009c 314B     		ldr	r3, .L29
 605 009e FFF7FEFF 		bl	__aeabi_dcmpgt
 606              	.LVL50:
 607 00a2 0028     		cmp	r0, #0
 608 00a4 BDD0     		beq	.L26
 609              	.LVL51:
 610              	.L21:
 272:Core/Src/main.c ****                        break;
 611              		.loc 1 272 23 view .LVU120
 612              	.LBE18:
 282:Core/Src/main.c ****                }
 283:Core/Src/main.c **** 
 284:Core/Src/main.c ****                mandelbrot_sum += iteration;
 613              		.loc 1 284 31 view .LVU121
 614 00a6 4346     		mov	r3, r8
 615              		.loc 1 284 16 is_stmt 1 view .LVU122
 616              		.loc 1 284 31 is_stmt 0 view .LVU123
 617 00a8 0A93     		str	r3, [sp, #40]
 618 00aa DB17     		asrs	r3, r3, #31
 619 00ac 0B93     		str	r3, [sp, #44]
 620 00ae 0C9B     		ldr	r3, [sp, #48]
 621 00b0 0D9C     		ldr	r4, [sp, #52]
 622 00b2 0A99     		ldr	r1, [sp, #40]
 623 00b4 0B9A     		ldr	r2, [sp, #44]
 624 00b6 5B18     		adds	r3, r3, r1
 625 00b8 5441     		adcs	r4, r4, r2
 626 00ba 0C93     		str	r3, [sp, #48]
 627 00bc 0D94     		str	r4, [sp, #52]
 628              	.LVL52:
 629              		.loc 1 284 31 view .LVU124
 630              	.LBE16:
 259:Core/Src/main.c ****                // Convert pixel coordinates to Mandelbrot coordinates (floating-point)
 631              		.loc 1 259 40 is_stmt 1 discriminator 2 view .LVU125
 632 00be 0123     		movs	r3, #1
 633              	.LVL53:
 259:Core/Src/main.c ****                // Convert pixel coordinates to Mandelbrot coordinates (floating-point)
 634              		.loc 1 259 40 is_stmt 0 discriminator 2 view .LVU126
 635 00c0 9C46     		mov	ip, r3
 636 00c2 E344     		add	fp, fp, ip
 637              	.LVL54:
 638              	.L24:
 259:Core/Src/main.c ****                // Convert pixel coordinates to Mandelbrot coordinates (floating-point)
 639              		.loc 1 259 30 is_stmt 1 discriminator 1 view .LVU127
 640 00c4 CB45     		cmp	fp, r9
ARM GAS  C:\Users\Lenovo\AppData\Local\Temp\ccm6tDFF.s 			page 18


 641 00c6 36DA     		bge	.L27
 642              	.LBB19:
 261:Core/Src/main.c ****                double y0 = (double)y / height * 2.0 - 1.0;  // y0 ∈ [-1.0, 1.0]
 643              		.loc 1 261 16 view .LVU128
 261:Core/Src/main.c ****                double y0 = (double)y / height * 2.0 - 1.0;  // y0 ∈ [-1.0, 1.0]
 644              		.loc 1 261 28 is_stmt 0 view .LVU129
 645 00c8 5846     		mov	r0, fp
 646 00ca FFF7FEFF 		bl	__aeabi_i2d
 647              	.LVL55:
 648 00ce 0400     		movs	r4, r0
 649 00d0 0D00     		movs	r5, r1
 261:Core/Src/main.c ****                double y0 = (double)y / height * 2.0 - 1.0;  // y0 ∈ [-1.0, 1.0]
 650              		.loc 1 261 38 view .LVU130
 651 00d2 4846     		mov	r0, r9
 652 00d4 FFF7FEFF 		bl	__aeabi_i2d
 653              	.LVL56:
 654 00d8 0200     		movs	r2, r0
 655 00da 0B00     		movs	r3, r1
 656 00dc 2000     		movs	r0, r4
 657 00de 2900     		movs	r1, r5
 658 00e0 FFF7FEFF 		bl	__aeabi_ddiv
 659              	.LVL57:
 261:Core/Src/main.c ****                double y0 = (double)y / height * 2.0 - 1.0;  // y0 ∈ [-1.0, 1.0]
 660              		.loc 1 261 46 view .LVU131
 661 00e4 0022     		movs	r2, #0
 662 00e6 204B     		ldr	r3, .L29+4
 663 00e8 FFF7FEFF 		bl	__aeabi_dmul
 664              	.LVL58:
 261:Core/Src/main.c ****                double y0 = (double)y / height * 2.0 - 1.0;  // y0 ∈ [-1.0, 1.0]
 665              		.loc 1 261 23 view .LVU132
 666 00ec 0022     		movs	r2, #0
 667 00ee 1F4B     		ldr	r3, .L29+8
 668 00f0 FFF7FEFF 		bl	__aeabi_dsub
 669              	.LVL59:
 670 00f4 0690     		str	r0, [sp, #24]
 671 00f6 0791     		str	r1, [sp, #28]
 672              	.LVL60:
 262:Core/Src/main.c **** 
 673              		.loc 1 262 16 is_stmt 1 view .LVU133
 262:Core/Src/main.c **** 
 674              		.loc 1 262 28 is_stmt 0 view .LVU134
 675 00f8 0E98     		ldr	r0, [sp, #56]
 676              	.LVL61:
 262:Core/Src/main.c **** 
 677              		.loc 1 262 28 view .LVU135
 678 00fa FFF7FEFF 		bl	__aeabi_i2d
 679              	.LVL62:
 680 00fe 0400     		movs	r4, r0
 681 0100 0D00     		movs	r5, r1
 262:Core/Src/main.c **** 
 682              		.loc 1 262 38 view .LVU136
 683 0102 5046     		mov	r0, r10
 684 0104 FFF7FEFF 		bl	__aeabi_i2d
 685              	.LVL63:
 686 0108 0200     		movs	r2, r0
 687 010a 0B00     		movs	r3, r1
 688 010c 2000     		movs	r0, r4
ARM GAS  C:\Users\Lenovo\AppData\Local\Temp\ccm6tDFF.s 			page 19


 689 010e 2900     		movs	r1, r5
 690 0110 FFF7FEFF 		bl	__aeabi_ddiv
 691              	.LVL64:
 262:Core/Src/main.c **** 
 692              		.loc 1 262 47 view .LVU137
 693 0114 0200     		movs	r2, r0
 694 0116 0B00     		movs	r3, r1
 695 0118 FFF7FEFF 		bl	__aeabi_dadd
 696              	.LVL65:
 262:Core/Src/main.c **** 
 697              		.loc 1 262 23 view .LVU138
 698 011c 0022     		movs	r2, #0
 699 011e 144B     		ldr	r3, .L29+12
 700 0120 FFF7FEFF 		bl	__aeabi_dsub
 701              	.LVL66:
 702 0124 0890     		str	r0, [sp, #32]
 703 0126 0991     		str	r1, [sp, #36]
 704              	.LVL67:
 264:Core/Src/main.c ****                int iteration = 0;
 705              		.loc 1 264 16 is_stmt 1 view .LVU139
 265:Core/Src/main.c **** 
 706              		.loc 1 265 16 view .LVU140
 267:Core/Src/main.c ****                    double xi_sq = xi * xi;
 707              		.loc 1 267 16 view .LVU141
 265:Core/Src/main.c **** 
 708              		.loc 1 265 20 is_stmt 0 view .LVU142
 709 0128 0023     		movs	r3, #0
 264:Core/Src/main.c ****                int iteration = 0;
 710              		.loc 1 264 33 view .LVU143
 711 012a 0024     		movs	r4, #0
 712 012c 0025     		movs	r5, #0
 264:Core/Src/main.c ****                int iteration = 0;
 713              		.loc 1 264 23 view .LVU144
 714 012e 2600     		movs	r6, r4
 715 0130 2F00     		movs	r7, r5
 716 0132 9846     		mov	r8, r3
 267:Core/Src/main.c ****                    double xi_sq = xi * xi;
 717              		.loc 1 267 22 view .LVU145
 718 0134 98E7     		b	.L20
 719              	.LVL68:
 720              	.L27:
 267:Core/Src/main.c ****                    double xi_sq = xi * xi;
 721              		.loc 1 267 22 view .LVU146
 722              	.LBE19:
 723              	.LBE15:
 258:Core/Src/main.c ****            for (int x = 0; x < width; x++) {
 724              		.loc 1 258 34 discriminator 2 view .LVU147
 725 0136 CB46     		mov	fp, r9
 726              	.LVL69:
 258:Core/Src/main.c ****            for (int x = 0; x < width; x++) {
 727              		.loc 1 258 34 is_stmt 1 discriminator 2 view .LVU148
 728 0138 0E9B     		ldr	r3, [sp, #56]
 729 013a 0133     		adds	r3, r3, #1
 730 013c 0E93     		str	r3, [sp, #56]
 731              	.LVL70:
 732              	.L19:
 258:Core/Src/main.c ****            for (int x = 0; x < width; x++) {
ARM GAS  C:\Users\Lenovo\AppData\Local\Temp\ccm6tDFF.s 			page 20


 733              		.loc 1 258 23 discriminator 1 view .LVU149
 734 013e 0E9B     		ldr	r3, [sp, #56]
 735 0140 0F9A     		ldr	r2, [sp, #60]
 736 0142 9342     		cmp	r3, r2
 737 0144 05DA     		bge	.L28
 738              	.LBB20:
 259:Core/Src/main.c ****                // Convert pixel coordinates to Mandelbrot coordinates (floating-point)
 739              		.loc 1 259 21 is_stmt 0 view .LVU150
 740 0146 0023     		movs	r3, #0
 741 0148 D946     		mov	r9, fp
 742 014a 9B46     		mov	fp, r3
 743              	.LVL71:
 259:Core/Src/main.c ****                // Convert pixel coordinates to Mandelbrot coordinates (floating-point)
 744              		.loc 1 259 21 view .LVU151
 745 014c 0F9B     		ldr	r3, [sp, #60]
 746 014e 9A46     		mov	r10, r3
 747 0150 B8E7     		b	.L24
 748              	.LVL72:
 749              	.L28:
 259:Core/Src/main.c ****                // Convert pixel coordinates to Mandelbrot coordinates (floating-point)
 750              		.loc 1 259 21 view .LVU152
 751              	.LBE20:
 752              	.LBE21:
 285:Core/Src/main.c ****            }
 286:Core/Src/main.c ****        }
 287:Core/Src/main.c **** 
 288:Core/Src/main.c ****     return mandelbrot_sum;
 753              		.loc 1 288 5 is_stmt 1 view .LVU153
 289:Core/Src/main.c **** }
 754              		.loc 1 289 1 is_stmt 0 view .LVU154
 755 0152 0C98     		ldr	r0, [sp, #48]
 756 0154 0D99     		ldr	r1, [sp, #52]
 757 0156 11B0     		add	sp, sp, #68
 758              		@ sp needed
 759              	.LVL73:
 760              		.loc 1 289 1 view .LVU155
 761 0158 F0BC     		pop	{r4, r5, r6, r7}
 762 015a BB46     		mov	fp, r7
 763 015c B246     		mov	r10, r6
 764 015e A946     		mov	r9, r5
 765 0160 A046     		mov	r8, r4
 766 0162 F0BD     		pop	{r4, r5, r6, r7, pc}
 767              	.L30:
 768              		.align	2
 769              	.L29:
 770 0164 00001040 		.word	1074790400
 771 0168 00000C40 		.word	1074528256
 772 016c 00000440 		.word	1074003968
 773 0170 0000F03F 		.word	1072693248
 774              		.cfi_endproc
 775              	.LFE44:
 777              		.global	__aeabi_i2f
 778              		.global	__aeabi_fdiv
 779              		.global	__aeabi_f2d
 780              		.global	__aeabi_d2f
 781              		.global	__aeabi_fmul
 782              		.global	__aeabi_fadd
ARM GAS  C:\Users\Lenovo\AppData\Local\Temp\ccm6tDFF.s 			page 21


 783              		.global	__aeabi_fcmpgt
 784              		.global	__aeabi_fsub
 785              		.section	.text.calculate_mandelbrot_float,"ax",%progbits
 786              		.align	1
 787              		.global	calculate_mandelbrot_float
 788              		.syntax unified
 789              		.code	16
 790              		.thumb_func
 792              	calculate_mandelbrot_float:
 793              	.LVL74:
 794              	.LFB45:
 290:Core/Src/main.c **** 
 291:Core/Src/main.c **** uint64_t calculate_mandelbrot_float(int width, int height, int max_iterations){
 795              		.loc 1 291 79 is_stmt 1 view -0
 796              		.cfi_startproc
 797              		@ args = 0, pretend = 0, frame = 40
 798              		@ frame_needed = 0, uses_anonymous_args = 0
 799              		.loc 1 291 79 is_stmt 0 view .LVU157
 800 0000 F0B5     		push	{r4, r5, r6, r7, lr}
 801              	.LCFI8:
 802              		.cfi_def_cfa_offset 20
 803              		.cfi_offset 4, -20
 804              		.cfi_offset 5, -16
 805              		.cfi_offset 6, -12
 806              		.cfi_offset 7, -8
 807              		.cfi_offset 14, -4
 808 0002 DE46     		mov	lr, fp
 809 0004 5746     		mov	r7, r10
 810 0006 4E46     		mov	r6, r9
 811 0008 4546     		mov	r5, r8
 812 000a E0B5     		push	{r5, r6, r7, lr}
 813              	.LCFI9:
 814              		.cfi_def_cfa_offset 36
 815              		.cfi_offset 8, -36
 816              		.cfi_offset 9, -32
 817              		.cfi_offset 10, -28
 818              		.cfi_offset 11, -24
 819 000c 8BB0     		sub	sp, sp, #44
 820              	.LCFI10:
 821              		.cfi_def_cfa_offset 80
 822 000e 8346     		mov	fp, r0
 823 0010 0192     		str	r2, [sp, #4]
 292:Core/Src/main.c ****     uint64_t mandelbrot_sum = 0;
 824              		.loc 1 292 5 is_stmt 1 view .LVU158
 825              	.LVL75:
 293:Core/Src/main.c ****     //TODO: Complete the function implementation
 294:Core/Src/main.c **** 
 295:Core/Src/main.c ****     for (int y = 0; y < height; y++) {
 826              		.loc 1 295 5 view .LVU159
 827              	.LBB22:
 828              		.loc 1 295 10 view .LVU160
 829              		.loc 1 295 14 is_stmt 0 view .LVU161
 830 0012 0025     		movs	r5, #0
 831              	.LBE22:
 292:Core/Src/main.c ****     uint64_t mandelbrot_sum = 0;
 832              		.loc 1 292 14 view .LVU162
 833 0014 0023     		movs	r3, #0
ARM GAS  C:\Users\Lenovo\AppData\Local\Temp\ccm6tDFF.s 			page 22


 834 0016 0024     		movs	r4, #0
 835 0018 0693     		str	r3, [sp, #24]
 836 001a 0794     		str	r4, [sp, #28]
 837 001c 0895     		str	r5, [sp, #32]
 838 001e 0991     		str	r1, [sp, #36]
 839              	.LBB29:
 840              		.loc 1 295 5 view .LVU163
 841 0020 78E0     		b	.L32
 842              	.LVL76:
 843              	.L39:
 844              	.LBB23:
 845              	.LBB24:
 846              	.LBB25:
 296:Core/Src/main.c ****            for (int x = 0; x < width; x++) {
 297:Core/Src/main.c ****                // Convert pixel coordinates to Mandelbrot coordinates (floating-point)
 298:Core/Src/main.c ****                float x0 = (float)x / width * 3.5 - 2.5;  // x0 ∈ [-2.5, 1.0]
 299:Core/Src/main.c ****                float y0 = (float)y / height * 2.0 - 1.0;  // y0 ∈ [-1.0, 1.0]
 300:Core/Src/main.c **** 
 301:Core/Src/main.c ****                float xi = 0.0, yi = 0.0;
 302:Core/Src/main.c ****                int iteration = 0;
 303:Core/Src/main.c **** 
 304:Core/Src/main.c ****                while (iteration < max_iterations) {
 305:Core/Src/main.c ****                    float xi_sq = xi * xi;
 306:Core/Src/main.c ****                    float yi_sq = yi * yi;
 307:Core/Src/main.c **** 
 308:Core/Src/main.c ****                    // Escape condition: xi² + yi² > 4.0
 309:Core/Src/main.c ****                    if (xi_sq + yi_sq > 4.0) {
 310:Core/Src/main.c ****                        break;
 311:Core/Src/main.c ****                    }
 312:Core/Src/main.c **** 
 313:Core/Src/main.c ****                    // Update zi = zi² + c (Mandelbrot formula)
 314:Core/Src/main.c ****                    float temp = xi_sq - yi_sq;
 847              		.loc 1 314 20 is_stmt 1 view .LVU164
 848              		.loc 1 314 26 is_stmt 0 view .LVU165
 849 0022 311C     		adds	r1, r6, #0
 850 0024 201C     		adds	r0, r4, #0
 851 0026 FFF7FEFF 		bl	__aeabi_fsub
 852              	.LVL77:
 853 002a 041C     		adds	r4, r0, #0
 854              	.LVL78:
 315:Core/Src/main.c ****                    yi = 2 * xi * yi + y0;
 855              		.loc 1 315 20 is_stmt 1 view .LVU166
 856              		.loc 1 315 27 is_stmt 0 view .LVU167
 857 002c 391C     		adds	r1, r7, #0
 858 002e 381C     		adds	r0, r7, #0
 859              	.LVL79:
 860              		.loc 1 315 27 view .LVU168
 861 0030 FFF7FEFF 		bl	__aeabi_fadd
 862              	.LVL80:
 863              		.loc 1 315 32 view .LVU169
 864 0034 291C     		adds	r1, r5, #0
 865 0036 FFF7FEFF 		bl	__aeabi_fmul
 866              	.LVL81:
 867              		.loc 1 315 23 view .LVU170
 868 003a 4946     		mov	r1, r9
 869 003c FFF7FEFF 		bl	__aeabi_fadd
 870              	.LVL82:
ARM GAS  C:\Users\Lenovo\AppData\Local\Temp\ccm6tDFF.s 			page 23


 871 0040 051C     		adds	r5, r0, #0
 872              	.LVL83:
 316:Core/Src/main.c ****                    xi = temp + x0;
 873              		.loc 1 316 20 is_stmt 1 view .LVU171
 874              		.loc 1 316 23 is_stmt 0 view .LVU172
 875 0042 211C     		adds	r1, r4, #0
 876 0044 0298     		ldr	r0, [sp, #8]
 877              	.LVL84:
 878              		.loc 1 316 23 view .LVU173
 879 0046 FFF7FEFF 		bl	__aeabi_fadd
 880              	.LVL85:
 881 004a 071C     		adds	r7, r0, #0
 882              	.LVL86:
 317:Core/Src/main.c **** 
 318:Core/Src/main.c ****                    iteration++;
 883              		.loc 1 318 20 is_stmt 1 view .LVU174
 884              		.loc 1 318 29 is_stmt 0 view .LVU175
 885 004c 0123     		movs	r3, #1
 886 004e 9C46     		mov	ip, r3
 887 0050 E044     		add	r8, r8, ip
 888              	.LVL87:
 889              	.L33:
 890              		.loc 1 318 29 view .LVU176
 891              	.LBE25:
 304:Core/Src/main.c ****                    float xi_sq = xi * xi;
 892              		.loc 1 304 33 is_stmt 1 view .LVU177
 893 0052 019B     		ldr	r3, [sp, #4]
 894 0054 9845     		cmp	r8, r3
 895 0056 13DA     		bge	.L34
 896              	.LBB26:
 305:Core/Src/main.c ****                    float yi_sq = yi * yi;
 897              		.loc 1 305 20 view .LVU178
 305:Core/Src/main.c ****                    float yi_sq = yi * yi;
 898              		.loc 1 305 26 is_stmt 0 view .LVU179
 899 0058 391C     		adds	r1, r7, #0
 900 005a 381C     		adds	r0, r7, #0
 901 005c FFF7FEFF 		bl	__aeabi_fmul
 902              	.LVL88:
 903 0060 041C     		adds	r4, r0, #0
 904              	.LVL89:
 306:Core/Src/main.c **** 
 905              		.loc 1 306 20 is_stmt 1 view .LVU180
 306:Core/Src/main.c **** 
 906              		.loc 1 306 26 is_stmt 0 view .LVU181
 907 0062 291C     		adds	r1, r5, #0
 908 0064 281C     		adds	r0, r5, #0
 909              	.LVL90:
 306:Core/Src/main.c **** 
 910              		.loc 1 306 26 view .LVU182
 911 0066 FFF7FEFF 		bl	__aeabi_fmul
 912              	.LVL91:
 913 006a 061C     		adds	r6, r0, #0
 914              	.LVL92:
 309:Core/Src/main.c ****                        break;
 915              		.loc 1 309 20 is_stmt 1 view .LVU183
 309:Core/Src/main.c ****                        break;
 916              		.loc 1 309 30 is_stmt 0 view .LVU184
ARM GAS  C:\Users\Lenovo\AppData\Local\Temp\ccm6tDFF.s 			page 24


 917 006c 011C     		adds	r1, r0, #0
 918 006e 201C     		adds	r0, r4, #0
 919              	.LVL93:
 309:Core/Src/main.c ****                        break;
 920              		.loc 1 309 30 view .LVU185
 921 0070 FFF7FEFF 		bl	__aeabi_fadd
 922              	.LVL94:
 309:Core/Src/main.c ****                        break;
 923              		.loc 1 309 23 view .LVU186
 924 0074 8121     		movs	r1, #129
 925 0076 C905     		lsls	r1, r1, #23
 926 0078 FFF7FEFF 		bl	__aeabi_fcmpgt
 927              	.LVL95:
 928 007c 0028     		cmp	r0, #0
 929 007e D0D0     		beq	.L39
 930              	.LVL96:
 931              	.L34:
 309:Core/Src/main.c ****                        break;
 932              		.loc 1 309 23 view .LVU187
 933              	.LBE26:
 319:Core/Src/main.c ****                }
 320:Core/Src/main.c **** 
 321:Core/Src/main.c ****                mandelbrot_sum += iteration;
 934              		.loc 1 321 31 view .LVU188
 935 0080 4646     		mov	r6, r8
 936              		.loc 1 321 16 is_stmt 1 view .LVU189
 937              		.loc 1 321 31 is_stmt 0 view .LVU190
 938 0082 0496     		str	r6, [sp, #16]
 939 0084 F317     		asrs	r3, r6, #31
 940 0086 0593     		str	r3, [sp, #20]
 941 0088 069B     		ldr	r3, [sp, #24]
 942 008a 079C     		ldr	r4, [sp, #28]
 943 008c 0499     		ldr	r1, [sp, #16]
 944 008e 059A     		ldr	r2, [sp, #20]
 945 0090 5B18     		adds	r3, r3, r1
 946 0092 5441     		adcs	r4, r4, r2
 947 0094 0693     		str	r3, [sp, #24]
 948 0096 0794     		str	r4, [sp, #28]
 949              	.LVL97:
 950              		.loc 1 321 31 view .LVU191
 951              	.LBE24:
 296:Core/Src/main.c ****                // Convert pixel coordinates to Mandelbrot coordinates (floating-point)
 952              		.loc 1 296 40 is_stmt 1 discriminator 2 view .LVU192
 953 0098 039B     		ldr	r3, [sp, #12]
 954              	.LVL98:
 296:Core/Src/main.c ****                // Convert pixel coordinates to Mandelbrot coordinates (floating-point)
 955              		.loc 1 296 40 is_stmt 0 discriminator 2 view .LVU193
 956 009a 0133     		adds	r3, r3, #1
 957 009c 0393     		str	r3, [sp, #12]
 958              	.LVL99:
 959              	.L37:
 296:Core/Src/main.c ****                // Convert pixel coordinates to Mandelbrot coordinates (floating-point)
 960              		.loc 1 296 30 is_stmt 1 discriminator 1 view .LVU194
 961 009e 039B     		ldr	r3, [sp, #12]
 962 00a0 5B45     		cmp	r3, fp
 963 00a2 34DA     		bge	.L40
 964              	.LBB27:
ARM GAS  C:\Users\Lenovo\AppData\Local\Temp\ccm6tDFF.s 			page 25


 298:Core/Src/main.c ****                float y0 = (float)y / height * 2.0 - 1.0;  // y0 ∈ [-1.0, 1.0]
 965              		.loc 1 298 16 view .LVU195
 298:Core/Src/main.c ****                float y0 = (float)y / height * 2.0 - 1.0;  // y0 ∈ [-1.0, 1.0]
 966              		.loc 1 298 27 is_stmt 0 view .LVU196
 967 00a4 0398     		ldr	r0, [sp, #12]
 968 00a6 FFF7FEFF 		bl	__aeabi_i2f
 969              	.LVL100:
 970 00aa 041C     		adds	r4, r0, #0
 298:Core/Src/main.c ****                float y0 = (float)y / height * 2.0 - 1.0;  // y0 ∈ [-1.0, 1.0]
 971              		.loc 1 298 36 view .LVU197
 972 00ac 5846     		mov	r0, fp
 973 00ae FFF7FEFF 		bl	__aeabi_i2f
 974              	.LVL101:
 975 00b2 011C     		adds	r1, r0, #0
 976 00b4 201C     		adds	r0, r4, #0
 977 00b6 FFF7FEFF 		bl	__aeabi_fdiv
 978              	.LVL102:
 979 00ba FFF7FEFF 		bl	__aeabi_f2d
 980              	.LVL103:
 298:Core/Src/main.c ****                float y0 = (float)y / height * 2.0 - 1.0;  // y0 ∈ [-1.0, 1.0]
 981              		.loc 1 298 44 view .LVU198
 982 00be 0022     		movs	r2, #0
 983 00c0 1D4B     		ldr	r3, .L42
 984 00c2 FFF7FEFF 		bl	__aeabi_dmul
 985              	.LVL104:
 298:Core/Src/main.c ****                float y0 = (float)y / height * 2.0 - 1.0;  // y0 ∈ [-1.0, 1.0]
 986              		.loc 1 298 50 view .LVU199
 987 00c6 0022     		movs	r2, #0
 988 00c8 1C4B     		ldr	r3, .L42+4
 989 00ca FFF7FEFF 		bl	__aeabi_dsub
 990              	.LVL105:
 298:Core/Src/main.c ****                float y0 = (float)y / height * 2.0 - 1.0;  // y0 ∈ [-1.0, 1.0]
 991              		.loc 1 298 22 view .LVU200
 992 00ce FFF7FEFF 		bl	__aeabi_d2f
 993              	.LVL106:
 994 00d2 0290     		str	r0, [sp, #8]
 995              	.LVL107:
 299:Core/Src/main.c **** 
 996              		.loc 1 299 16 is_stmt 1 view .LVU201
 299:Core/Src/main.c **** 
 997              		.loc 1 299 27 is_stmt 0 view .LVU202
 998 00d4 0898     		ldr	r0, [sp, #32]
 999              	.LVL108:
 299:Core/Src/main.c **** 
 1000              		.loc 1 299 27 view .LVU203
 1001 00d6 FFF7FEFF 		bl	__aeabi_i2f
 1002              	.LVL109:
 1003 00da 041C     		adds	r4, r0, #0
 299:Core/Src/main.c **** 
 1004              		.loc 1 299 36 view .LVU204
 1005 00dc 5046     		mov	r0, r10
 1006 00de FFF7FEFF 		bl	__aeabi_i2f
 1007              	.LVL110:
 1008 00e2 011C     		adds	r1, r0, #0
 1009 00e4 201C     		adds	r0, r4, #0
 1010 00e6 FFF7FEFF 		bl	__aeabi_fdiv
 1011              	.LVL111:
ARM GAS  C:\Users\Lenovo\AppData\Local\Temp\ccm6tDFF.s 			page 26


 1012 00ea FFF7FEFF 		bl	__aeabi_f2d
 1013              	.LVL112:
 299:Core/Src/main.c **** 
 1014              		.loc 1 299 45 view .LVU205
 1015 00ee 0200     		movs	r2, r0
 1016 00f0 0B00     		movs	r3, r1
 1017 00f2 FFF7FEFF 		bl	__aeabi_dadd
 1018              	.LVL113:
 299:Core/Src/main.c **** 
 1019              		.loc 1 299 51 view .LVU206
 1020 00f6 0022     		movs	r2, #0
 1021 00f8 114B     		ldr	r3, .L42+8
 1022 00fa FFF7FEFF 		bl	__aeabi_dsub
 1023              	.LVL114:
 299:Core/Src/main.c **** 
 1024              		.loc 1 299 22 view .LVU207
 1025 00fe FFF7FEFF 		bl	__aeabi_d2f
 1026              	.LVL115:
 1027 0102 8146     		mov	r9, r0
 1028              	.LVL116:
 301:Core/Src/main.c ****                int iteration = 0;
 1029              		.loc 1 301 16 is_stmt 1 view .LVU208
 302:Core/Src/main.c **** 
 1030              		.loc 1 302 16 view .LVU209
 304:Core/Src/main.c ****                    float xi_sq = xi * xi;
 1031              		.loc 1 304 16 view .LVU210
 302:Core/Src/main.c **** 
 1032              		.loc 1 302 20 is_stmt 0 view .LVU211
 1033 0104 0026     		movs	r6, #0
 301:Core/Src/main.c ****                int iteration = 0;
 1034              		.loc 1 301 32 view .LVU212
 1035 0106 0025     		movs	r5, #0
 301:Core/Src/main.c ****                int iteration = 0;
 1036              		.loc 1 301 22 view .LVU213
 1037 0108 2F1C     		adds	r7, r5, #0
 1038 010a B046     		mov	r8, r6
 304:Core/Src/main.c ****                    float xi_sq = xi * xi;
 1039              		.loc 1 304 22 view .LVU214
 1040 010c A1E7     		b	.L33
 1041              	.LVL117:
 1042              	.L40:
 304:Core/Src/main.c ****                    float xi_sq = xi * xi;
 1043              		.loc 1 304 22 view .LVU215
 1044              	.LBE27:
 1045              	.LBE23:
 295:Core/Src/main.c ****            for (int x = 0; x < width; x++) {
 1046              		.loc 1 295 34 is_stmt 1 discriminator 2 view .LVU216
 1047 010e 089B     		ldr	r3, [sp, #32]
 1048              	.LVL118:
 295:Core/Src/main.c ****            for (int x = 0; x < width; x++) {
 1049              		.loc 1 295 34 is_stmt 0 discriminator 2 view .LVU217
 1050 0110 0133     		adds	r3, r3, #1
 1051 0112 0893     		str	r3, [sp, #32]
 1052              	.LVL119:
 1053              	.L32:
 295:Core/Src/main.c ****            for (int x = 0; x < width; x++) {
 1054              		.loc 1 295 23 is_stmt 1 discriminator 1 view .LVU218
ARM GAS  C:\Users\Lenovo\AppData\Local\Temp\ccm6tDFF.s 			page 27


 1055 0114 089B     		ldr	r3, [sp, #32]
 1056 0116 099A     		ldr	r2, [sp, #36]
 1057 0118 9342     		cmp	r3, r2
 1058 011a 04DA     		bge	.L41
 1059              	.LBB28:
 296:Core/Src/main.c ****                // Convert pixel coordinates to Mandelbrot coordinates (floating-point)
 1060              		.loc 1 296 21 is_stmt 0 view .LVU219
 1061 011c 0023     		movs	r3, #0
 1062 011e 0393     		str	r3, [sp, #12]
 1063 0120 099B     		ldr	r3, [sp, #36]
 1064 0122 9A46     		mov	r10, r3
 1065 0124 BBE7     		b	.L37
 1066              	.LVL120:
 1067              	.L41:
 296:Core/Src/main.c ****                // Convert pixel coordinates to Mandelbrot coordinates (floating-point)
 1068              		.loc 1 296 21 view .LVU220
 1069              	.LBE28:
 1070              	.LBE29:
 322:Core/Src/main.c ****            }
 323:Core/Src/main.c ****        }
 324:Core/Src/main.c **** 
 325:Core/Src/main.c ****     return mandelbrot_sum;
 1071              		.loc 1 325 5 is_stmt 1 view .LVU221
 326:Core/Src/main.c **** }
 1072              		.loc 1 326 1 is_stmt 0 view .LVU222
 1073 0126 0698     		ldr	r0, [sp, #24]
 1074 0128 0799     		ldr	r1, [sp, #28]
 1075 012a 0BB0     		add	sp, sp, #44
 1076              		@ sp needed
 1077              	.LVL121:
 1078              		.loc 1 326 1 view .LVU223
 1079 012c F0BC     		pop	{r4, r5, r6, r7}
 1080 012e BB46     		mov	fp, r7
 1081 0130 B246     		mov	r10, r6
 1082 0132 A946     		mov	r9, r5
 1083 0134 A046     		mov	r8, r4
 1084 0136 F0BD     		pop	{r4, r5, r6, r7, pc}
 1085              	.L43:
 1086              		.align	2
 1087              	.L42:
 1088 0138 00000C40 		.word	1074528256
 1089 013c 00000440 		.word	1074003968
 1090 0140 0000F03F 		.word	1072693248
 1091              		.cfi_endproc
 1092              	.LFE45:
 1094              		.section	.text.Error_Handler,"ax",%progbits
 1095              		.align	1
 1096              		.global	Error_Handler
 1097              		.syntax unified
 1098              		.code	16
 1099              		.thumb_func
 1101              	Error_Handler:
 1102              	.LFB46:
 327:Core/Src/main.c **** 
 328:Core/Src/main.c **** /* USER CODE END 4 */
 329:Core/Src/main.c **** 
 330:Core/Src/main.c **** /**
ARM GAS  C:\Users\Lenovo\AppData\Local\Temp\ccm6tDFF.s 			page 28


 331:Core/Src/main.c ****   * @brief  This function is executed in case of error occurrence.
 332:Core/Src/main.c ****   * @retval None
 333:Core/Src/main.c ****   */
 334:Core/Src/main.c **** void Error_Handler(void)
 335:Core/Src/main.c **** {
 1103              		.loc 1 335 1 is_stmt 1 view -0
 1104              		.cfi_startproc
 1105              		@ Volatile: function does not return.
 1106              		@ args = 0, pretend = 0, frame = 0
 1107              		@ frame_needed = 0, uses_anonymous_args = 0
 1108              		@ link register save eliminated.
 336:Core/Src/main.c ****   /* USER CODE BEGIN Error_Handler_Debug */
 337:Core/Src/main.c ****   /* User can add his own implementation to report the HAL error return state */
 338:Core/Src/main.c ****   __disable_irq();
 1109              		.loc 1 338 3 view .LVU225
 1110              	.LBB30:
 1111              	.LBI30:
 1112              		.file 2 "Drivers/CMSIS/Include/cmsis_gcc.h"
   1:Drivers/CMSIS/Include/cmsis_gcc.h **** /**************************************************************************//**
   2:Drivers/CMSIS/Include/cmsis_gcc.h ****  * @file     cmsis_gcc.h
   3:Drivers/CMSIS/Include/cmsis_gcc.h ****  * @brief    CMSIS compiler GCC header file
   4:Drivers/CMSIS/Include/cmsis_gcc.h ****  * @version  V5.0.4
   5:Drivers/CMSIS/Include/cmsis_gcc.h ****  * @date     09. April 2018
   6:Drivers/CMSIS/Include/cmsis_gcc.h ****  ******************************************************************************/
   7:Drivers/CMSIS/Include/cmsis_gcc.h **** /*
   8:Drivers/CMSIS/Include/cmsis_gcc.h ****  * Copyright (c) 2009-2018 Arm Limited. All rights reserved.
   9:Drivers/CMSIS/Include/cmsis_gcc.h ****  *
  10:Drivers/CMSIS/Include/cmsis_gcc.h ****  * SPDX-License-Identifier: Apache-2.0
  11:Drivers/CMSIS/Include/cmsis_gcc.h ****  *
  12:Drivers/CMSIS/Include/cmsis_gcc.h ****  * Licensed under the Apache License, Version 2.0 (the License); you may
  13:Drivers/CMSIS/Include/cmsis_gcc.h ****  * not use this file except in compliance with the License.
  14:Drivers/CMSIS/Include/cmsis_gcc.h ****  * You may obtain a copy of the License at
  15:Drivers/CMSIS/Include/cmsis_gcc.h ****  *
  16:Drivers/CMSIS/Include/cmsis_gcc.h ****  * www.apache.org/licenses/LICENSE-2.0
  17:Drivers/CMSIS/Include/cmsis_gcc.h ****  *
  18:Drivers/CMSIS/Include/cmsis_gcc.h ****  * Unless required by applicable law or agreed to in writing, software
  19:Drivers/CMSIS/Include/cmsis_gcc.h ****  * distributed under the License is distributed on an AS IS BASIS, WITHOUT
  20:Drivers/CMSIS/Include/cmsis_gcc.h ****  * WARRANTIES OR CONDITIONS OF ANY KIND, either express or implied.
  21:Drivers/CMSIS/Include/cmsis_gcc.h ****  * See the License for the specific language governing permissions and
  22:Drivers/CMSIS/Include/cmsis_gcc.h ****  * limitations under the License.
  23:Drivers/CMSIS/Include/cmsis_gcc.h ****  */
  24:Drivers/CMSIS/Include/cmsis_gcc.h **** 
  25:Drivers/CMSIS/Include/cmsis_gcc.h **** #ifndef __CMSIS_GCC_H
  26:Drivers/CMSIS/Include/cmsis_gcc.h **** #define __CMSIS_GCC_H
  27:Drivers/CMSIS/Include/cmsis_gcc.h **** 
  28:Drivers/CMSIS/Include/cmsis_gcc.h **** /* ignore some GCC warnings */
  29:Drivers/CMSIS/Include/cmsis_gcc.h **** #pragma GCC diagnostic push
  30:Drivers/CMSIS/Include/cmsis_gcc.h **** #pragma GCC diagnostic ignored "-Wsign-conversion"
  31:Drivers/CMSIS/Include/cmsis_gcc.h **** #pragma GCC diagnostic ignored "-Wconversion"
  32:Drivers/CMSIS/Include/cmsis_gcc.h **** #pragma GCC diagnostic ignored "-Wunused-parameter"
  33:Drivers/CMSIS/Include/cmsis_gcc.h **** 
  34:Drivers/CMSIS/Include/cmsis_gcc.h **** /* Fallback for __has_builtin */
  35:Drivers/CMSIS/Include/cmsis_gcc.h **** #ifndef __has_builtin
  36:Drivers/CMSIS/Include/cmsis_gcc.h ****   #define __has_builtin(x) (0)
  37:Drivers/CMSIS/Include/cmsis_gcc.h **** #endif
  38:Drivers/CMSIS/Include/cmsis_gcc.h **** 
  39:Drivers/CMSIS/Include/cmsis_gcc.h **** /* CMSIS compiler specific defines */
ARM GAS  C:\Users\Lenovo\AppData\Local\Temp\ccm6tDFF.s 			page 29


  40:Drivers/CMSIS/Include/cmsis_gcc.h **** #ifndef   __ASM
  41:Drivers/CMSIS/Include/cmsis_gcc.h ****   #define __ASM                                  __asm
  42:Drivers/CMSIS/Include/cmsis_gcc.h **** #endif
  43:Drivers/CMSIS/Include/cmsis_gcc.h **** #ifndef   __INLINE
  44:Drivers/CMSIS/Include/cmsis_gcc.h ****   #define __INLINE                               inline
  45:Drivers/CMSIS/Include/cmsis_gcc.h **** #endif
  46:Drivers/CMSIS/Include/cmsis_gcc.h **** #ifndef   __STATIC_INLINE
  47:Drivers/CMSIS/Include/cmsis_gcc.h ****   #define __STATIC_INLINE                        static inline
  48:Drivers/CMSIS/Include/cmsis_gcc.h **** #endif
  49:Drivers/CMSIS/Include/cmsis_gcc.h **** #ifndef   __STATIC_FORCEINLINE                 
  50:Drivers/CMSIS/Include/cmsis_gcc.h ****   #define __STATIC_FORCEINLINE                   __attribute__((always_inline)) static inline
  51:Drivers/CMSIS/Include/cmsis_gcc.h **** #endif                                           
  52:Drivers/CMSIS/Include/cmsis_gcc.h **** #ifndef   __NO_RETURN
  53:Drivers/CMSIS/Include/cmsis_gcc.h ****   #define __NO_RETURN                            __attribute__((__noreturn__))
  54:Drivers/CMSIS/Include/cmsis_gcc.h **** #endif
  55:Drivers/CMSIS/Include/cmsis_gcc.h **** #ifndef   __USED
  56:Drivers/CMSIS/Include/cmsis_gcc.h ****   #define __USED                                 __attribute__((used))
  57:Drivers/CMSIS/Include/cmsis_gcc.h **** #endif
  58:Drivers/CMSIS/Include/cmsis_gcc.h **** #ifndef   __WEAK
  59:Drivers/CMSIS/Include/cmsis_gcc.h ****   #define __WEAK                                 __attribute__((weak))
  60:Drivers/CMSIS/Include/cmsis_gcc.h **** #endif
  61:Drivers/CMSIS/Include/cmsis_gcc.h **** #ifndef   __PACKED
  62:Drivers/CMSIS/Include/cmsis_gcc.h ****   #define __PACKED                               __attribute__((packed, aligned(1)))
  63:Drivers/CMSIS/Include/cmsis_gcc.h **** #endif
  64:Drivers/CMSIS/Include/cmsis_gcc.h **** #ifndef   __PACKED_STRUCT
  65:Drivers/CMSIS/Include/cmsis_gcc.h ****   #define __PACKED_STRUCT                        struct __attribute__((packed, aligned(1)))
  66:Drivers/CMSIS/Include/cmsis_gcc.h **** #endif
  67:Drivers/CMSIS/Include/cmsis_gcc.h **** #ifndef   __PACKED_UNION
  68:Drivers/CMSIS/Include/cmsis_gcc.h ****   #define __PACKED_UNION                         union __attribute__((packed, aligned(1)))
  69:Drivers/CMSIS/Include/cmsis_gcc.h **** #endif
  70:Drivers/CMSIS/Include/cmsis_gcc.h **** #ifndef   __UNALIGNED_UINT32        /* deprecated */
  71:Drivers/CMSIS/Include/cmsis_gcc.h ****   #pragma GCC diagnostic push
  72:Drivers/CMSIS/Include/cmsis_gcc.h ****   #pragma GCC diagnostic ignored "-Wpacked"
  73:Drivers/CMSIS/Include/cmsis_gcc.h ****   #pragma GCC diagnostic ignored "-Wattributes"
  74:Drivers/CMSIS/Include/cmsis_gcc.h ****   struct __attribute__((packed)) T_UINT32 { uint32_t v; };
  75:Drivers/CMSIS/Include/cmsis_gcc.h ****   #pragma GCC diagnostic pop
  76:Drivers/CMSIS/Include/cmsis_gcc.h ****   #define __UNALIGNED_UINT32(x)                  (((struct T_UINT32 *)(x))->v)
  77:Drivers/CMSIS/Include/cmsis_gcc.h **** #endif
  78:Drivers/CMSIS/Include/cmsis_gcc.h **** #ifndef   __UNALIGNED_UINT16_WRITE
  79:Drivers/CMSIS/Include/cmsis_gcc.h ****   #pragma GCC diagnostic push
  80:Drivers/CMSIS/Include/cmsis_gcc.h ****   #pragma GCC diagnostic ignored "-Wpacked"
  81:Drivers/CMSIS/Include/cmsis_gcc.h ****   #pragma GCC diagnostic ignored "-Wattributes"
  82:Drivers/CMSIS/Include/cmsis_gcc.h ****   __PACKED_STRUCT T_UINT16_WRITE { uint16_t v; };
  83:Drivers/CMSIS/Include/cmsis_gcc.h ****   #pragma GCC diagnostic pop
  84:Drivers/CMSIS/Include/cmsis_gcc.h ****   #define __UNALIGNED_UINT16_WRITE(addr, val)    (void)((((struct T_UINT16_WRITE *)(void *)(addr))-
  85:Drivers/CMSIS/Include/cmsis_gcc.h **** #endif
  86:Drivers/CMSIS/Include/cmsis_gcc.h **** #ifndef   __UNALIGNED_UINT16_READ
  87:Drivers/CMSIS/Include/cmsis_gcc.h ****   #pragma GCC diagnostic push
  88:Drivers/CMSIS/Include/cmsis_gcc.h ****   #pragma GCC diagnostic ignored "-Wpacked"
  89:Drivers/CMSIS/Include/cmsis_gcc.h ****   #pragma GCC diagnostic ignored "-Wattributes"
  90:Drivers/CMSIS/Include/cmsis_gcc.h ****   __PACKED_STRUCT T_UINT16_READ { uint16_t v; };
  91:Drivers/CMSIS/Include/cmsis_gcc.h ****   #pragma GCC diagnostic pop
  92:Drivers/CMSIS/Include/cmsis_gcc.h ****   #define __UNALIGNED_UINT16_READ(addr)          (((const struct T_UINT16_READ *)(const void *)(add
  93:Drivers/CMSIS/Include/cmsis_gcc.h **** #endif
  94:Drivers/CMSIS/Include/cmsis_gcc.h **** #ifndef   __UNALIGNED_UINT32_WRITE
  95:Drivers/CMSIS/Include/cmsis_gcc.h ****   #pragma GCC diagnostic push
  96:Drivers/CMSIS/Include/cmsis_gcc.h ****   #pragma GCC diagnostic ignored "-Wpacked"
ARM GAS  C:\Users\Lenovo\AppData\Local\Temp\ccm6tDFF.s 			page 30


  97:Drivers/CMSIS/Include/cmsis_gcc.h ****   #pragma GCC diagnostic ignored "-Wattributes"
  98:Drivers/CMSIS/Include/cmsis_gcc.h ****   __PACKED_STRUCT T_UINT32_WRITE { uint32_t v; };
  99:Drivers/CMSIS/Include/cmsis_gcc.h ****   #pragma GCC diagnostic pop
 100:Drivers/CMSIS/Include/cmsis_gcc.h ****   #define __UNALIGNED_UINT32_WRITE(addr, val)    (void)((((struct T_UINT32_WRITE *)(void *)(addr))-
 101:Drivers/CMSIS/Include/cmsis_gcc.h **** #endif
 102:Drivers/CMSIS/Include/cmsis_gcc.h **** #ifndef   __UNALIGNED_UINT32_READ
 103:Drivers/CMSIS/Include/cmsis_gcc.h ****   #pragma GCC diagnostic push
 104:Drivers/CMSIS/Include/cmsis_gcc.h ****   #pragma GCC diagnostic ignored "-Wpacked"
 105:Drivers/CMSIS/Include/cmsis_gcc.h ****   #pragma GCC diagnostic ignored "-Wattributes"
 106:Drivers/CMSIS/Include/cmsis_gcc.h ****   __PACKED_STRUCT T_UINT32_READ { uint32_t v; };
 107:Drivers/CMSIS/Include/cmsis_gcc.h ****   #pragma GCC diagnostic pop
 108:Drivers/CMSIS/Include/cmsis_gcc.h ****   #define __UNALIGNED_UINT32_READ(addr)          (((const struct T_UINT32_READ *)(const void *)(add
 109:Drivers/CMSIS/Include/cmsis_gcc.h **** #endif
 110:Drivers/CMSIS/Include/cmsis_gcc.h **** #ifndef   __ALIGNED
 111:Drivers/CMSIS/Include/cmsis_gcc.h ****   #define __ALIGNED(x)                           __attribute__((aligned(x)))
 112:Drivers/CMSIS/Include/cmsis_gcc.h **** #endif
 113:Drivers/CMSIS/Include/cmsis_gcc.h **** #ifndef   __RESTRICT
 114:Drivers/CMSIS/Include/cmsis_gcc.h ****   #define __RESTRICT                             __restrict
 115:Drivers/CMSIS/Include/cmsis_gcc.h **** #endif
 116:Drivers/CMSIS/Include/cmsis_gcc.h **** 
 117:Drivers/CMSIS/Include/cmsis_gcc.h **** 
 118:Drivers/CMSIS/Include/cmsis_gcc.h **** /* ###########################  Core Function Access  ########################### */
 119:Drivers/CMSIS/Include/cmsis_gcc.h **** /** \ingroup  CMSIS_Core_FunctionInterface
 120:Drivers/CMSIS/Include/cmsis_gcc.h ****     \defgroup CMSIS_Core_RegAccFunctions CMSIS Core Register Access Functions
 121:Drivers/CMSIS/Include/cmsis_gcc.h ****   @{
 122:Drivers/CMSIS/Include/cmsis_gcc.h ****  */
 123:Drivers/CMSIS/Include/cmsis_gcc.h **** 
 124:Drivers/CMSIS/Include/cmsis_gcc.h **** /**
 125:Drivers/CMSIS/Include/cmsis_gcc.h ****   \brief   Enable IRQ Interrupts
 126:Drivers/CMSIS/Include/cmsis_gcc.h ****   \details Enables IRQ interrupts by clearing the I-bit in the CPSR.
 127:Drivers/CMSIS/Include/cmsis_gcc.h ****            Can only be executed in Privileged modes.
 128:Drivers/CMSIS/Include/cmsis_gcc.h ****  */
 129:Drivers/CMSIS/Include/cmsis_gcc.h **** __STATIC_FORCEINLINE void __enable_irq(void)
 130:Drivers/CMSIS/Include/cmsis_gcc.h **** {
 131:Drivers/CMSIS/Include/cmsis_gcc.h ****   __ASM volatile ("cpsie i" : : : "memory");
 132:Drivers/CMSIS/Include/cmsis_gcc.h **** }
 133:Drivers/CMSIS/Include/cmsis_gcc.h **** 
 134:Drivers/CMSIS/Include/cmsis_gcc.h **** 
 135:Drivers/CMSIS/Include/cmsis_gcc.h **** /**
 136:Drivers/CMSIS/Include/cmsis_gcc.h ****   \brief   Disable IRQ Interrupts
 137:Drivers/CMSIS/Include/cmsis_gcc.h ****   \details Disables IRQ interrupts by setting the I-bit in the CPSR.
 138:Drivers/CMSIS/Include/cmsis_gcc.h ****            Can only be executed in Privileged modes.
 139:Drivers/CMSIS/Include/cmsis_gcc.h ****  */
 140:Drivers/CMSIS/Include/cmsis_gcc.h **** __STATIC_FORCEINLINE void __disable_irq(void)
 1113              		.loc 2 140 27 view .LVU226
 1114              	.LBB31:
 141:Drivers/CMSIS/Include/cmsis_gcc.h **** {
 142:Drivers/CMSIS/Include/cmsis_gcc.h ****   __ASM volatile ("cpsid i" : : : "memory");
 1115              		.loc 2 142 3 view .LVU227
 1116              		.syntax divided
 1117              	@ 142 "Drivers/CMSIS/Include/cmsis_gcc.h" 1
 1118 0000 72B6     		cpsid i
 1119              	@ 0 "" 2
 1120              		.thumb
 1121              		.syntax unified
 1122              	.L45:
 1123              	.LBE31:
ARM GAS  C:\Users\Lenovo\AppData\Local\Temp\ccm6tDFF.s 			page 31


 1124              	.LBE30:
 339:Core/Src/main.c ****   while (1)
 1125              		.loc 1 339 3 view .LVU228
 340:Core/Src/main.c ****   {
 341:Core/Src/main.c ****   }
 1126              		.loc 1 341 3 view .LVU229
 339:Core/Src/main.c ****   while (1)
 1127              		.loc 1 339 9 view .LVU230
 1128 0002 FEE7     		b	.L45
 1129              		.cfi_endproc
 1130              	.LFE46:
 1132              		.section	.text.SystemClock_Config,"ax",%progbits
 1133              		.align	1
 1134              		.global	SystemClock_Config
 1135              		.syntax unified
 1136              		.code	16
 1137              		.thumb_func
 1139              	SystemClock_Config:
 1140              	.LFB41:
 153:Core/Src/main.c ****   RCC_OscInitTypeDef RCC_OscInitStruct = {0};
 1141              		.loc 1 153 1 view -0
 1142              		.cfi_startproc
 1143              		@ args = 0, pretend = 0, frame = 64
 1144              		@ frame_needed = 0, uses_anonymous_args = 0
 1145 0000 00B5     		push	{lr}
 1146              	.LCFI11:
 1147              		.cfi_def_cfa_offset 4
 1148              		.cfi_offset 14, -4
 1149 0002 91B0     		sub	sp, sp, #68
 1150              	.LCFI12:
 1151              		.cfi_def_cfa_offset 72
 154:Core/Src/main.c ****   RCC_ClkInitTypeDef RCC_ClkInitStruct = {0};
 1152              		.loc 1 154 3 view .LVU232
 154:Core/Src/main.c ****   RCC_ClkInitTypeDef RCC_ClkInitStruct = {0};
 1153              		.loc 1 154 22 is_stmt 0 view .LVU233
 1154 0004 3022     		movs	r2, #48
 1155 0006 0021     		movs	r1, #0
 1156 0008 04A8     		add	r0, sp, #16
 1157 000a FFF7FEFF 		bl	memset
 1158              	.LVL122:
 155:Core/Src/main.c **** 
 1159              		.loc 1 155 3 is_stmt 1 view .LVU234
 155:Core/Src/main.c **** 
 1160              		.loc 1 155 22 is_stmt 0 view .LVU235
 1161 000e 1022     		movs	r2, #16
 1162 0010 0021     		movs	r1, #0
 1163 0012 6846     		mov	r0, sp
 1164 0014 FFF7FEFF 		bl	memset
 1165              	.LVL123:
 160:Core/Src/main.c ****   RCC_OscInitStruct.HSIState = RCC_HSI_ON;
 1166              		.loc 1 160 3 is_stmt 1 view .LVU236
 160:Core/Src/main.c ****   RCC_OscInitStruct.HSIState = RCC_HSI_ON;
 1167              		.loc 1 160 36 is_stmt 0 view .LVU237
 1168 0018 0223     		movs	r3, #2
 1169 001a 0493     		str	r3, [sp, #16]
 161:Core/Src/main.c ****   RCC_OscInitStruct.HSICalibrationValue = RCC_HSICALIBRATION_DEFAULT;
 1170              		.loc 1 161 3 is_stmt 1 view .LVU238
ARM GAS  C:\Users\Lenovo\AppData\Local\Temp\ccm6tDFF.s 			page 32


 161:Core/Src/main.c ****   RCC_OscInitStruct.HSICalibrationValue = RCC_HSICALIBRATION_DEFAULT;
 1171              		.loc 1 161 30 is_stmt 0 view .LVU239
 1172 001c 013B     		subs	r3, r3, #1
 1173 001e 0793     		str	r3, [sp, #28]
 162:Core/Src/main.c ****   RCC_OscInitStruct.PLL.PLLState = RCC_PLL_NONE;
 1174              		.loc 1 162 3 is_stmt 1 view .LVU240
 162:Core/Src/main.c ****   RCC_OscInitStruct.PLL.PLLState = RCC_PLL_NONE;
 1175              		.loc 1 162 41 is_stmt 0 view .LVU241
 1176 0020 0F33     		adds	r3, r3, #15
 1177 0022 0893     		str	r3, [sp, #32]
 163:Core/Src/main.c ****   if (HAL_RCC_OscConfig(&RCC_OscInitStruct) != HAL_OK)
 1178              		.loc 1 163 3 is_stmt 1 view .LVU242
 164:Core/Src/main.c ****   {
 1179              		.loc 1 164 3 view .LVU243
 164:Core/Src/main.c ****   {
 1180              		.loc 1 164 7 is_stmt 0 view .LVU244
 1181 0024 04A8     		add	r0, sp, #16
 1182 0026 FFF7FEFF 		bl	HAL_RCC_OscConfig
 1183              	.LVL124:
 164:Core/Src/main.c ****   {
 1184              		.loc 1 164 6 discriminator 1 view .LVU245
 1185 002a 0028     		cmp	r0, #0
 1186 002c 0DD1     		bne	.L49
 171:Core/Src/main.c ****                               |RCC_CLOCKTYPE_PCLK1;
 1187              		.loc 1 171 3 is_stmt 1 view .LVU246
 171:Core/Src/main.c ****                               |RCC_CLOCKTYPE_PCLK1;
 1188              		.loc 1 171 31 is_stmt 0 view .LVU247
 1189 002e 0723     		movs	r3, #7
 1190 0030 0093     		str	r3, [sp]
 173:Core/Src/main.c ****   RCC_ClkInitStruct.AHBCLKDivider = RCC_SYSCLK_DIV1;
 1191              		.loc 1 173 3 is_stmt 1 view .LVU248
 173:Core/Src/main.c ****   RCC_ClkInitStruct.AHBCLKDivider = RCC_SYSCLK_DIV1;
 1192              		.loc 1 173 34 is_stmt 0 view .LVU249
 1193 0032 0023     		movs	r3, #0
 1194 0034 0193     		str	r3, [sp, #4]
 174:Core/Src/main.c ****   RCC_ClkInitStruct.APB1CLKDivider = RCC_HCLK_DIV1;
 1195              		.loc 1 174 3 is_stmt 1 view .LVU250
 174:Core/Src/main.c ****   RCC_ClkInitStruct.APB1CLKDivider = RCC_HCLK_DIV1;
 1196              		.loc 1 174 35 is_stmt 0 view .LVU251
 1197 0036 0293     		str	r3, [sp, #8]
 175:Core/Src/main.c **** 
 1198              		.loc 1 175 3 is_stmt 1 view .LVU252
 175:Core/Src/main.c **** 
 1199              		.loc 1 175 36 is_stmt 0 view .LVU253
 1200 0038 0393     		str	r3, [sp, #12]
 177:Core/Src/main.c ****   {
 1201              		.loc 1 177 3 is_stmt 1 view .LVU254
 177:Core/Src/main.c ****   {
 1202              		.loc 1 177 7 is_stmt 0 view .LVU255
 1203 003a 0021     		movs	r1, #0
 1204 003c 6846     		mov	r0, sp
 1205 003e FFF7FEFF 		bl	HAL_RCC_ClockConfig
 1206              	.LVL125:
 177:Core/Src/main.c ****   {
 1207              		.loc 1 177 6 discriminator 1 view .LVU256
 1208 0042 0028     		cmp	r0, #0
 1209 0044 03D1     		bne	.L50
ARM GAS  C:\Users\Lenovo\AppData\Local\Temp\ccm6tDFF.s 			page 33


 181:Core/Src/main.c **** 
 1210              		.loc 1 181 1 view .LVU257
 1211 0046 11B0     		add	sp, sp, #68
 1212              		@ sp needed
 1213 0048 00BD     		pop	{pc}
 1214              	.L49:
 166:Core/Src/main.c ****   }
 1215              		.loc 1 166 5 is_stmt 1 view .LVU258
 1216 004a FFF7FEFF 		bl	Error_Handler
 1217              	.LVL126:
 1218              	.L50:
 179:Core/Src/main.c ****   }
 1219              		.loc 1 179 5 view .LVU259
 1220 004e FFF7FEFF 		bl	Error_Handler
 1221              	.LVL127:
 1222              		.cfi_endproc
 1223              	.LFE41:
 1225              		.section	.text.main,"ax",%progbits
 1226              		.align	1
 1227              		.global	main
 1228              		.syntax unified
 1229              		.code	16
 1230              		.thumb_func
 1232              	main:
 1233              	.LFB40:
  83:Core/Src/main.c ****   /* USER CODE BEGIN 1 */
 1234              		.loc 1 83 1 view -0
 1235              		.cfi_startproc
 1236              		@ args = 0, pretend = 0, frame = 0
 1237              		@ frame_needed = 0, uses_anonymous_args = 0
 1238 0000 10B5     		push	{r4, lr}
 1239              	.LCFI13:
 1240              		.cfi_def_cfa_offset 8
 1241              		.cfi_offset 4, -8
 1242              		.cfi_offset 14, -4
  91:Core/Src/main.c **** 
 1243              		.loc 1 91 3 view .LVU261
 1244 0002 FFF7FEFF 		bl	HAL_Init
 1245              	.LVL128:
  98:Core/Src/main.c **** 
 1246              		.loc 1 98 3 view .LVU262
 1247 0006 FFF7FEFF 		bl	SystemClock_Config
 1248              	.LVL129:
 105:Core/Src/main.c ****   /* USER CODE BEGIN 2 */
 1249              		.loc 1 105 3 view .LVU263
 1250 000a FFF7FEFF 		bl	MX_GPIO_Init
 1251              	.LVL130:
 108:Core/Src/main.c ****   HAL_GPIO_WritePin(GPIOB, GPIO_PIN_0, GPIO_PIN_SET);  // Set just pin 0 high
 1252              		.loc 1 108 3 view .LVU264
 1253 000e 1A4C     		ldr	r4, .L55
 1254 0010 FF21     		movs	r1, #255
 1255 0012 2000     		movs	r0, r4
 1256 0014 FFF7FEFF 		bl	LL_GPIO_ResetOutputPin
 1257              	.LVL131:
 109:Core/Src/main.c **** 
 1258              		.loc 1 109 3 view .LVU265
 1259 0018 0122     		movs	r2, #1
ARM GAS  C:\Users\Lenovo\AppData\Local\Temp\ccm6tDFF.s 			page 34


 1260 001a 0121     		movs	r1, #1
 1261 001c 2000     		movs	r0, r4
 1262 001e FFF7FEFF 		bl	HAL_GPIO_WritePin
 1263              	.LVL132:
 112:Core/Src/main.c ****   
 1264              		.loc 1 112 3 view .LVU266
 112:Core/Src/main.c ****   
 1265              		.loc 1 112 16 is_stmt 0 view .LVU267
 1266 0022 FFF7FEFF 		bl	HAL_GetTick
 1267              	.LVL133:
 112:Core/Src/main.c ****   
 1268              		.loc 1 112 14 discriminator 1 view .LVU268
 1269 0026 154B     		ldr	r3, .L55+4
 1270 0028 1860     		str	r0, [r3]
 115:Core/Src/main.c ****   mandelbrot_checksum = calculate_mandelbrot_fixed_point_arithmetic(test_image_sizes[i], test_image
 1271              		.loc 1 115 3 is_stmt 1 view .LVU269
 1272              	.LBB32:
 115:Core/Src/main.c ****   mandelbrot_checksum = calculate_mandelbrot_fixed_point_arithmetic(test_image_sizes[i], test_image
 1273              		.loc 1 115 7 view .LVU270
 1274              	.LVL134:
 115:Core/Src/main.c ****   mandelbrot_checksum = calculate_mandelbrot_fixed_point_arithmetic(test_image_sizes[i], test_image
 1275              		.loc 1 115 11 is_stmt 0 view .LVU271
 1276 002a 0024     		movs	r4, #0
 115:Core/Src/main.c ****   mandelbrot_checksum = calculate_mandelbrot_fixed_point_arithmetic(test_image_sizes[i], test_image
 1277              		.loc 1 115 3 view .LVU272
 1278 002c 09E0     		b	.L52
 1279              	.LVL135:
 1280              	.L53:
 116:Core/Src/main.c ****   }
 1281              		.loc 1 116 3 is_stmt 1 view .LVU273
 116:Core/Src/main.c ****   }
 1282              		.loc 1 116 85 is_stmt 0 view .LVU274
 1283 002e 144B     		ldr	r3, .L55+8
 1284 0030 6200     		lsls	r2, r4, #1
 1285 0032 D05A     		ldrh	r0, [r2, r3]
 116:Core/Src/main.c ****   }
 1286              		.loc 1 116 25 view .LVU275
 1287 0034 6422     		movs	r2, #100
 1288 0036 0100     		movs	r1, r0
 1289 0038 FFF7FEFF 		bl	calculate_mandelbrot_fixed_point_arithmetic
 1290              	.LVL136:
 116:Core/Src/main.c ****   }
 1291              		.loc 1 116 23 discriminator 1 view .LVU276
 1292 003c 114B     		ldr	r3, .L55+12
 1293 003e 1860     		str	r0, [r3]
 115:Core/Src/main.c ****   mandelbrot_checksum = calculate_mandelbrot_fixed_point_arithmetic(test_image_sizes[i], test_image
 1294              		.loc 1 115 23 is_stmt 1 discriminator 3 view .LVU277
 1295 0040 0134     		adds	r4, r4, #1
 1296              	.LVL137:
 1297              	.L52:
 115:Core/Src/main.c ****   mandelbrot_checksum = calculate_mandelbrot_fixed_point_arithmetic(test_image_sizes[i], test_image
 1298              		.loc 1 115 18 discriminator 1 view .LVU278
 1299 0042 042C     		cmp	r4, #4
 1300 0044 F3DD     		ble	.L53
 1301              	.LBE32:
 120:Core/Src/main.c ****   //TODO: Calculate the execution time
 1302              		.loc 1 120 4 view .LVU279
ARM GAS  C:\Users\Lenovo\AppData\Local\Temp\ccm6tDFF.s 			page 35


 120:Core/Src/main.c ****   //TODO: Calculate the execution time
 1303              		.loc 1 120 15 is_stmt 0 view .LVU280
 1304 0046 FFF7FEFF 		bl	HAL_GetTick
 1305              	.LVL138:
 120:Core/Src/main.c ****   //TODO: Calculate the execution time
 1306              		.loc 1 120 13 discriminator 1 view .LVU281
 1307 004a 0F4B     		ldr	r3, .L55+16
 1308 004c 1860     		str	r0, [r3]
 123:Core/Src/main.c ****   //TODO: Turn on LED 1 to signify the end of the operation
 1309              		.loc 1 123 4 is_stmt 1 view .LVU282
 1310              	.LVL139:
 125:Core/Src/main.c ****    HAL_GPIO_WritePin(GPIOB, GPIO_PIN_1, GPIO_PIN_SET);  // Set just pin 0 high
 1311              		.loc 1 125 4 view .LVU283
 1312 004e 0A4C     		ldr	r4, .L55
 1313              	.LVL140:
 125:Core/Src/main.c ****    HAL_GPIO_WritePin(GPIOB, GPIO_PIN_1, GPIO_PIN_SET);  // Set just pin 0 high
 1314              		.loc 1 125 4 is_stmt 0 view .LVU284
 1315 0050 FF21     		movs	r1, #255
 1316 0052 2000     		movs	r0, r4
 1317              	.LVL141:
 125:Core/Src/main.c ****    HAL_GPIO_WritePin(GPIOB, GPIO_PIN_1, GPIO_PIN_SET);  // Set just pin 0 high
 1318              		.loc 1 125 4 view .LVU285
 1319 0054 FFF7FEFF 		bl	LL_GPIO_ResetOutputPin
 1320              	.LVL142:
 126:Core/Src/main.c **** 
 1321              		.loc 1 126 4 is_stmt 1 view .LVU286
 1322 0058 0122     		movs	r2, #1
 1323 005a 0221     		movs	r1, #2
 1324 005c 2000     		movs	r0, r4
 1325 005e FFF7FEFF 		bl	HAL_GPIO_WritePin
 1326              	.LVL143:
 129:Core/Src/main.c **** 
 1327              		.loc 1 129 4 view .LVU287
 1328 0062 FA20     		movs	r0, #250
 1329 0064 8000     		lsls	r0, r0, #2
 1330 0066 FFF7FEFF 		bl	HAL_Delay
 1331              	.LVL144:
 134:Core/Src/main.c ****   /* USER CODE END 2 */
 1332              		.loc 1 134 4 view .LVU288
 1333 006a 0022     		movs	r2, #0
 1334 006c FF21     		movs	r1, #255
 1335 006e 2000     		movs	r0, r4
 1336 0070 FFF7FEFF 		bl	HAL_GPIO_WritePin
 1337              	.LVL145:
 1338              	.L54:
 139:Core/Src/main.c ****   {
 1339              		.loc 1 139 3 view .LVU289
 144:Core/Src/main.c ****   /* USER CODE END 3 */
 1340              		.loc 1 144 3 view .LVU290
 139:Core/Src/main.c ****   {
 1341              		.loc 1 139 9 view .LVU291
 1342 0074 FEE7     		b	.L54
 1343              	.L56:
 1344 0076 C046     		.align	2
 1345              	.L55:
 1346 0078 00040048 		.word	1207960576
 1347 007c 00000000 		.word	start_time
ARM GAS  C:\Users\Lenovo\AppData\Local\Temp\ccm6tDFF.s 			page 36


 1348 0080 00000000 		.word	test_image_sizes
 1349 0084 00000000 		.word	mandelbrot_checksum
 1350 0088 00000000 		.word	end_time
 1351              		.cfi_endproc
 1352              	.LFE40:
 1354              		.global	mandelbrot_checksum
 1355              		.section	.bss.mandelbrot_checksum,"aw",%nobits
 1356              		.align	2
 1359              	mandelbrot_checksum:
 1360 0000 00000000 		.space	4
 1361              		.global	end_time
 1362              		.section	.bss.end_time,"aw",%nobits
 1363              		.align	2
 1366              	end_time:
 1367 0000 00000000 		.space	4
 1368              		.global	start_time
 1369              		.section	.bss.start_time,"aw",%nobits
 1370              		.align	2
 1373              	start_time:
 1374 0000 00000000 		.space	4
 1375              		.global	test_image_sizes
 1376              		.section	.data.test_image_sizes,"aw"
 1377              		.align	2
 1380              	test_image_sizes:
 1381 0000 8000     		.short	128
 1382 0002 A000     		.short	160
 1383 0004 C000     		.short	192
 1384 0006 E000     		.short	224
 1385 0008 0001     		.short	256
 1386              		.text
 1387              	.Letext0:
 1388              		.file 3 "C:\\ST\\STM32CubeIDE_1.19.0\\STM32CubeIDE\\plugins\\com.st.stm32cube.ide.mcu.externaltool
 1389              		.file 4 "C:\\ST\\STM32CubeIDE_1.19.0\\STM32CubeIDE\\plugins\\com.st.stm32cube.ide.mcu.externaltool
 1390              		.file 5 "Drivers/CMSIS/Device/ST/STM32F0xx/Include/stm32f051x8.h"
 1391              		.file 6 "Drivers/STM32F0xx_HAL_Driver/Inc/stm32f0xx_hal_def.h"
 1392              		.file 7 "Drivers/STM32F0xx_HAL_Driver/Inc/stm32f0xx_hal_rcc.h"
 1393              		.file 8 "Drivers/STM32F0xx_HAL_Driver/Inc/stm32f0xx_hal_gpio.h"
 1394              		.file 9 "Drivers/STM32F0xx_HAL_Driver/Inc/stm32f0xx_hal.h"
 1395              		.file 10 "<built-in>"
ARM GAS  C:\Users\Lenovo\AppData\Local\Temp\ccm6tDFF.s 			page 37


DEFINED SYMBOLS
                            *ABS*:00000000 main.c
C:\Users\Lenovo\AppData\Local\Temp\ccm6tDFF.s:19     .text.MX_GPIO_Init:00000000 $t
C:\Users\Lenovo\AppData\Local\Temp\ccm6tDFF.s:24     .text.MX_GPIO_Init:00000000 MX_GPIO_Init
C:\Users\Lenovo\AppData\Local\Temp\ccm6tDFF.s:114    .text.MX_GPIO_Init:0000005c $d
C:\Users\Lenovo\AppData\Local\Temp\ccm6tDFF.s:122    .text.calculate_mandelbrot_fixed_point_arithmetic:00000000 $t
C:\Users\Lenovo\AppData\Local\Temp\ccm6tDFF.s:128    .text.calculate_mandelbrot_fixed_point_arithmetic:00000000 calculate_mandelbrot_fixed_point_arithmetic
C:\Users\Lenovo\AppData\Local\Temp\ccm6tDFF.s:434    .text.calculate_mandelbrot_fixed_point_arithmetic:00000160 $d
C:\Users\Lenovo\AppData\Local\Temp\ccm6tDFF.s:446    .text.calculate_mandelbrot_double:00000000 $t
C:\Users\Lenovo\AppData\Local\Temp\ccm6tDFF.s:452    .text.calculate_mandelbrot_double:00000000 calculate_mandelbrot_double
C:\Users\Lenovo\AppData\Local\Temp\ccm6tDFF.s:770    .text.calculate_mandelbrot_double:00000164 $d
C:\Users\Lenovo\AppData\Local\Temp\ccm6tDFF.s:786    .text.calculate_mandelbrot_float:00000000 $t
C:\Users\Lenovo\AppData\Local\Temp\ccm6tDFF.s:792    .text.calculate_mandelbrot_float:00000000 calculate_mandelbrot_float
C:\Users\Lenovo\AppData\Local\Temp\ccm6tDFF.s:1088   .text.calculate_mandelbrot_float:00000138 $d
C:\Users\Lenovo\AppData\Local\Temp\ccm6tDFF.s:1095   .text.Error_Handler:00000000 $t
C:\Users\Lenovo\AppData\Local\Temp\ccm6tDFF.s:1101   .text.Error_Handler:00000000 Error_Handler
C:\Users\Lenovo\AppData\Local\Temp\ccm6tDFF.s:1133   .text.SystemClock_Config:00000000 $t
C:\Users\Lenovo\AppData\Local\Temp\ccm6tDFF.s:1139   .text.SystemClock_Config:00000000 SystemClock_Config
C:\Users\Lenovo\AppData\Local\Temp\ccm6tDFF.s:1226   .text.main:00000000 $t
C:\Users\Lenovo\AppData\Local\Temp\ccm6tDFF.s:1232   .text.main:00000000 main
C:\Users\Lenovo\AppData\Local\Temp\ccm6tDFF.s:1346   .text.main:00000078 $d
C:\Users\Lenovo\AppData\Local\Temp\ccm6tDFF.s:1373   .bss.start_time:00000000 start_time
C:\Users\Lenovo\AppData\Local\Temp\ccm6tDFF.s:1380   .data.test_image_sizes:00000000 test_image_sizes
C:\Users\Lenovo\AppData\Local\Temp\ccm6tDFF.s:1359   .bss.mandelbrot_checksum:00000000 mandelbrot_checksum
C:\Users\Lenovo\AppData\Local\Temp\ccm6tDFF.s:1366   .bss.end_time:00000000 end_time
C:\Users\Lenovo\AppData\Local\Temp\ccm6tDFF.s:1356   .bss.mandelbrot_checksum:00000000 $d
C:\Users\Lenovo\AppData\Local\Temp\ccm6tDFF.s:1363   .bss.end_time:00000000 $d
C:\Users\Lenovo\AppData\Local\Temp\ccm6tDFF.s:1370   .bss.start_time:00000000 $d
C:\Users\Lenovo\AppData\Local\Temp\ccm6tDFF.s:1377   .data.test_image_sizes:00000000 $d

UNDEFINED SYMBOLS
memset
HAL_GPIO_WritePin
HAL_GPIO_Init
__aeabi_idiv
__aeabi_lmul
__aeabi_i2d
__aeabi_ddiv
__aeabi_dmul
__aeabi_dsub
__aeabi_dadd
__aeabi_dcmpgt
__aeabi_i2f
__aeabi_fdiv
__aeabi_f2d
__aeabi_d2f
__aeabi_fmul
__aeabi_fadd
__aeabi_fcmpgt
__aeabi_fsub
HAL_RCC_OscConfig
HAL_RCC_ClockConfig
HAL_Init
LL_GPIO_ResetOutputPin
HAL_GetTick
HAL_Delay
